
tablo_stm32.elf:     file format elf32-littlearm

Sections:
Idx Name          Size      VMA       LMA       File off  Algn
  0 .isr_vector   0000010c  08000000  08000000  00010000  2**0
                  CONTENTS, ALLOC, LOAD, READONLY, DATA
  1 .text         00004efc  0800010c  0800010c  0001010c  2**2
                  CONTENTS, ALLOC, LOAD, READONLY, CODE
  2 .rodata       00000300  08005008  08005008  00015008  2**2
                  CONTENTS, ALLOC, LOAD, READONLY, DATA
  3 .ARM.extab    00000000  08005308  08005308  00020018  2**0
                  CONTENTS
  4 .ARM          00000000  08005308  08005308  00020018  2**0
                  CONTENTS
  5 .preinit_array 00000000  08005308  08005308  00020018  2**0
                  CONTENTS, ALLOC, LOAD, DATA
  6 .init_array   00000004  08005308  08005308  00015308  2**2
                  CONTENTS, ALLOC, LOAD, DATA
  7 .fini_array   00000004  0800530c  0800530c  0001530c  2**2
                  CONTENTS, ALLOC, LOAD, DATA
  8 .data         00000018  20000000  08005310  00020000  2**2
                  CONTENTS, ALLOC, LOAD, DATA
  9 .bss          000006f8  20000018  08005328  00020018  2**2
                  ALLOC
 10 ._user_heap_stack 00000600  20000710  08005328  00020710  2**0
                  ALLOC
 11 .ARM.attributes 00000029  00000000  00000000  00020018  2**0
                  CONTENTS, READONLY
 12 .comment      0000007b  00000000  00000000  00020041  2**0
                  CONTENTS, READONLY
 13 .debug_frame  00000074  00000000  00000000  000200bc  2**2
                  CONTENTS, READONLY, DEBUGGING

Disassembly of section .text:

0800010c <__do_global_dtors_aux>:
 800010c:	b510      	push	{r4, lr}
 800010e:	4c05      	ldr	r4, [pc, #20]	; (8000124 <__do_global_dtors_aux+0x18>)
 8000110:	7823      	ldrb	r3, [r4, #0]
 8000112:	b933      	cbnz	r3, 8000122 <__do_global_dtors_aux+0x16>
 8000114:	4b04      	ldr	r3, [pc, #16]	; (8000128 <__do_global_dtors_aux+0x1c>)
 8000116:	b113      	cbz	r3, 800011e <__do_global_dtors_aux+0x12>
 8000118:	4804      	ldr	r0, [pc, #16]	; (800012c <__do_global_dtors_aux+0x20>)
 800011a:	f3af 8000 	nop.w
 800011e:	2301      	movs	r3, #1
 8000120:	7023      	strb	r3, [r4, #0]
 8000122:	bd10      	pop	{r4, pc}
 8000124:	20000018 	.word	0x20000018
 8000128:	00000000 	.word	0x00000000
 800012c:	08004ff0 	.word	0x08004ff0

08000130 <frame_dummy>:
 8000130:	b508      	push	{r3, lr}
 8000132:	4b03      	ldr	r3, [pc, #12]	; (8000140 <frame_dummy+0x10>)
 8000134:	b11b      	cbz	r3, 800013e <frame_dummy+0xe>
 8000136:	4903      	ldr	r1, [pc, #12]	; (8000144 <frame_dummy+0x14>)
 8000138:	4803      	ldr	r0, [pc, #12]	; (8000148 <frame_dummy+0x18>)
 800013a:	f3af 8000 	nop.w
 800013e:	bd08      	pop	{r3, pc}
 8000140:	00000000 	.word	0x00000000
 8000144:	2000001c 	.word	0x2000001c
 8000148:	08004ff0 	.word	0x08004ff0

0800014c <controlKey>:
 800014c:	e92d 41f0 	stmdb	sp!, {r4, r5, r6, r7, r8, lr}
 8000150:	2140      	movs	r1, #64	; 0x40
 8000152:	489e      	ldr	r0, [pc, #632]	; (80003cc <controlKey+0x280>)
 8000154:	f002 fbc0 	bl	80028d8 <HAL_GPIO_ReadPin>
 8000158:	4c9d      	ldr	r4, [pc, #628]	; (80003d0 <controlKey+0x284>)
 800015a:	2801      	cmp	r0, #1
 800015c:	7823      	ldrb	r3, [r4, #0]
 800015e:	f04f 0110 	mov.w	r1, #16
 8000162:	bf0c      	ite	eq
 8000164:	f043 0301 	orreq.w	r3, r3, #1
 8000168:	f003 03fe 	andne.w	r3, r3, #254	; 0xfe
 800016c:	4897      	ldr	r0, [pc, #604]	; (80003cc <controlKey+0x280>)
 800016e:	7023      	strb	r3, [r4, #0]
 8000170:	f002 fbb2 	bl	80028d8 <HAL_GPIO_ReadPin>
 8000174:	7823      	ldrb	r3, [r4, #0]
 8000176:	2801      	cmp	r0, #1
 8000178:	bf0c      	ite	eq
 800017a:	f043 0302 	orreq.w	r3, r3, #2
 800017e:	f003 03fd 	andne.w	r3, r3, #253	; 0xfd
 8000182:	2120      	movs	r1, #32
 8000184:	4891      	ldr	r0, [pc, #580]	; (80003cc <controlKey+0x280>)
 8000186:	7023      	strb	r3, [r4, #0]
 8000188:	f002 fba6 	bl	80028d8 <HAL_GPIO_ReadPin>
 800018c:	7823      	ldrb	r3, [r4, #0]
 800018e:	2801      	cmp	r0, #1
 8000190:	bf0c      	ite	eq
 8000192:	f043 0304 	orreq.w	r3, r3, #4
 8000196:	f003 03fb 	andne.w	r3, r3, #251	; 0xfb
 800019a:	f003 0007 	and.w	r0, r3, #7
 800019e:	b241      	sxtb	r1, r0
 80001a0:	08da      	lsrs	r2, r3, #3
 80001a2:	4d8c      	ldr	r5, [pc, #560]	; (80003d4 <controlKey+0x288>)
 80001a4:	ea81 0602 	eor.w	r6, r1, r2
 80001a8:	4291      	cmp	r1, r2
 80001aa:	702e      	strb	r6, [r5, #0]
 80001ac:	7023      	strb	r3, [r4, #0]
 80001ae:	4d8a      	ldr	r5, [pc, #552]	; (80003d8 <controlKey+0x28c>)
 80001b0:	d002      	beq.n	80001b8 <controlKey+0x6c>
 80001b2:	782a      	ldrb	r2, [r5, #0]
 80001b4:	2a00      	cmp	r2, #0
 80001b6:	d162      	bne.n	800027e <controlKey+0x132>
 80001b8:	4e88      	ldr	r6, [pc, #544]	; (80003dc <controlKey+0x290>)
 80001ba:	2114      	movs	r1, #20
 80001bc:	8830      	ldrh	r0, [r6, #0]
 80001be:	f000 f9b1 	bl	8000524 <controlTickTime>
 80001c2:	2800      	cmp	r0, #0
 80001c4:	d03c      	beq.n	8000240 <controlKey+0xf4>
 80001c6:	f04f 0c01 	mov.w	ip, #1
 80001ca:	4885      	ldr	r0, [pc, #532]	; (80003e0 <controlKey+0x294>)
 80001cc:	7821      	ldrb	r1, [r4, #0]
 80001ce:	4a85      	ldr	r2, [pc, #532]	; (80003e4 <controlKey+0x298>)
 80001d0:	7807      	ldrb	r7, [r0, #0]
 80001d2:	f001 0307 	and.w	r3, r1, #7
 80001d6:	7013      	strb	r3, [r2, #0]
 80001d8:	429f      	cmp	r7, r3
 80001da:	ea4f 02c1 	mov.w	r2, r1, lsl #3
 80001de:	b2d2      	uxtb	r2, r2
 80001e0:	f885 c000 	strb.w	ip, [r5]
 80001e4:	d125      	bne.n	8000232 <controlKey+0xe6>
 80001e6:	4d80      	ldr	r5, [pc, #512]	; (80003e8 <controlKey+0x29c>)
 80001e8:	4f80      	ldr	r7, [pc, #512]	; (80003ec <controlKey+0x2a0>)
 80001ea:	4e81      	ldr	r6, [pc, #516]	; (80003f0 <controlKey+0x2a4>)
 80001ec:	ea01 000c 	and.w	r0, r1, ip
 80001f0:	f3c1 0340 	ubfx	r3, r1, #1, #1
 80001f4:	f3c1 0180 	ubfx	r1, r1, #2, #1
 80001f8:	7028      	strb	r0, [r5, #0]
 80001fa:	703b      	strb	r3, [r7, #0]
 80001fc:	7031      	strb	r1, [r6, #0]
 80001fe:	7022      	strb	r2, [r4, #0]
 8000200:	2b00      	cmp	r3, #0
 8000202:	d02c      	beq.n	800025e <controlKey+0x112>
 8000204:	4a7b      	ldr	r2, [pc, #492]	; (80003f4 <controlKey+0x2a8>)
 8000206:	7811      	ldrb	r1, [r2, #0]
 8000208:	bb49      	cbnz	r1, 800025e <controlKey+0x112>
 800020a:	2101      	movs	r1, #1
 800020c:	4b7a      	ldr	r3, [pc, #488]	; (80003f8 <controlKey+0x2ac>)
 800020e:	7011      	strb	r1, [r2, #0]
 8000210:	781b      	ldrb	r3, [r3, #0]
 8000212:	2b00      	cmp	r3, #0
 8000214:	f040 8089 	bne.w	800032a <controlKey+0x1de>
 8000218:	7831      	ldrb	r1, [r6, #0]
 800021a:	b909      	cbnz	r1, 8000220 <controlKey+0xd4>
 800021c:	4b77      	ldr	r3, [pc, #476]	; (80003fc <controlKey+0x2b0>)
 800021e:	7019      	strb	r1, [r3, #0]
 8000220:	782b      	ldrb	r3, [r5, #0]
 8000222:	b923      	cbnz	r3, 800022e <controlKey+0xe2>
 8000224:	2001      	movs	r0, #1
 8000226:	4976      	ldr	r1, [pc, #472]	; (8000400 <controlKey+0x2b4>)
 8000228:	4a76      	ldr	r2, [pc, #472]	; (8000404 <controlKey+0x2b8>)
 800022a:	7008      	strb	r0, [r1, #0]
 800022c:	7013      	strb	r3, [r2, #0]
 800022e:	e8bd 81f0 	ldmia.w	sp!, {r4, r5, r6, r7, r8, pc}
 8000232:	2100      	movs	r1, #0
 8000234:	7003      	strb	r3, [r0, #0]
 8000236:	7022      	strb	r2, [r4, #0]
 8000238:	7029      	strb	r1, [r5, #0]
 800023a:	f000 f983 	bl	8000544 <getCurrentTick>
 800023e:	8030      	strh	r0, [r6, #0]
 8000240:	4f6a      	ldr	r7, [pc, #424]	; (80003ec <controlKey+0x2a0>)
 8000242:	782a      	ldrb	r2, [r5, #0]
 8000244:	783b      	ldrb	r3, [r7, #0]
 8000246:	b132      	cbz	r2, 8000256 <controlKey+0x10a>
 8000248:	7822      	ldrb	r2, [r4, #0]
 800024a:	4d67      	ldr	r5, [pc, #412]	; (80003e8 <controlKey+0x29c>)
 800024c:	00d2      	lsls	r2, r2, #3
 800024e:	b2d2      	uxtb	r2, r2
 8000250:	4e67      	ldr	r6, [pc, #412]	; (80003f0 <controlKey+0x2a4>)
 8000252:	7022      	strb	r2, [r4, #0]
 8000254:	e7d4      	b.n	8000200 <controlKey+0xb4>
 8000256:	4d64      	ldr	r5, [pc, #400]	; (80003e8 <controlKey+0x29c>)
 8000258:	4e65      	ldr	r6, [pc, #404]	; (80003f0 <controlKey+0x2a4>)
 800025a:	2b00      	cmp	r3, #0
 800025c:	d1d2      	bne.n	8000204 <controlKey+0xb8>
 800025e:	7831      	ldrb	r1, [r6, #0]
 8000260:	b1e1      	cbz	r1, 800029c <controlKey+0x150>
 8000262:	4a66      	ldr	r2, [pc, #408]	; (80003fc <controlKey+0x2b0>)
 8000264:	7810      	ldrb	r0, [r2, #0]
 8000266:	b9c8      	cbnz	r0, 800029c <controlKey+0x150>
 8000268:	2001      	movs	r0, #1
 800026a:	4963      	ldr	r1, [pc, #396]	; (80003f8 <controlKey+0x2ac>)
 800026c:	7010      	strb	r0, [r2, #0]
 800026e:	780a      	ldrb	r2, [r1, #0]
 8000270:	2a00      	cmp	r2, #0
 8000272:	d170      	bne.n	8000356 <controlKey+0x20a>
 8000274:	2b00      	cmp	r3, #0
 8000276:	d1d3      	bne.n	8000220 <controlKey+0xd4>
 8000278:	4a5e      	ldr	r2, [pc, #376]	; (80003f4 <controlKey+0x2a8>)
 800027a:	7013      	strb	r3, [r2, #0]
 800027c:	e7d0      	b.n	8000220 <controlKey+0xd4>
 800027e:	4a58      	ldr	r2, [pc, #352]	; (80003e0 <controlKey+0x294>)
 8000280:	00db      	lsls	r3, r3, #3
 8000282:	7023      	strb	r3, [r4, #0]
 8000284:	7010      	strb	r0, [r2, #0]
 8000286:	f000 f95d 	bl	8000544 <getCurrentTick>
 800028a:	2300      	movs	r3, #0
 800028c:	4a53      	ldr	r2, [pc, #332]	; (80003dc <controlKey+0x290>)
 800028e:	4f57      	ldr	r7, [pc, #348]	; (80003ec <controlKey+0x2a0>)
 8000290:	702b      	strb	r3, [r5, #0]
 8000292:	8010      	strh	r0, [r2, #0]
 8000294:	783b      	ldrb	r3, [r7, #0]
 8000296:	4d54      	ldr	r5, [pc, #336]	; (80003e8 <controlKey+0x29c>)
 8000298:	4e55      	ldr	r6, [pc, #340]	; (80003f0 <controlKey+0x2a4>)
 800029a:	e7b1      	b.n	8000200 <controlKey+0xb4>
 800029c:	782a      	ldrb	r2, [r5, #0]
 800029e:	b312      	cbz	r2, 80002e6 <controlKey+0x19a>
 80002a0:	4c57      	ldr	r4, [pc, #348]	; (8000400 <controlKey+0x2b4>)
 80002a2:	f894 8000 	ldrb.w	r8, [r4]
 80002a6:	f1b8 0f00 	cmp.w	r8, #0
 80002aa:	d12e      	bne.n	800030a <controlKey+0x1be>
 80002ac:	4c55      	ldr	r4, [pc, #340]	; (8000404 <controlKey+0x2b8>)
 80002ae:	7822      	ldrb	r2, [r4, #0]
 80002b0:	b1a2      	cbz	r2, 80002dc <controlKey+0x190>
 80002b2:	4b55      	ldr	r3, [pc, #340]	; (8000408 <controlKey+0x2bc>)
 80002b4:	f44f 717a 	mov.w	r1, #1000	; 0x3e8
 80002b8:	8818      	ldrh	r0, [r3, #0]
 80002ba:	f000 f933 	bl	8000524 <controlTickTime>
 80002be:	2800      	cmp	r0, #0
 80002c0:	d05e      	beq.n	8000380 <controlKey+0x234>
 80002c2:	484d      	ldr	r0, [pc, #308]	; (80003f8 <controlKey+0x2ac>)
 80002c4:	f884 8000 	strb.w	r8, [r4]
 80002c8:	7802      	ldrb	r2, [r0, #0]
 80002ca:	783b      	ldrb	r3, [r7, #0]
 80002cc:	f082 0201 	eor.w	r2, r2, #1
 80002d0:	7831      	ldrb	r1, [r6, #0]
 80002d2:	7002      	strb	r2, [r0, #0]
 80002d4:	b112      	cbz	r2, 80002dc <controlKey+0x190>
 80002d6:	2001      	movs	r0, #1
 80002d8:	4a4c      	ldr	r2, [pc, #304]	; (800040c <controlKey+0x2c0>)
 80002da:	7010      	strb	r0, [r2, #0]
 80002dc:	2b00      	cmp	r3, #0
 80002de:	d19c      	bne.n	800021a <controlKey+0xce>
 80002e0:	4a44      	ldr	r2, [pc, #272]	; (80003f4 <controlKey+0x2a8>)
 80002e2:	7013      	strb	r3, [r2, #0]
 80002e4:	e799      	b.n	800021a <controlKey+0xce>
 80002e6:	4847      	ldr	r0, [pc, #284]	; (8000404 <controlKey+0x2b8>)
 80002e8:	7800      	ldrb	r0, [r0, #0]
 80002ea:	2800      	cmp	r0, #0
 80002ec:	d0f6      	beq.n	80002dc <controlKey+0x190>
 80002ee:	4842      	ldr	r0, [pc, #264]	; (80003f8 <controlKey+0x2ac>)
 80002f0:	7804      	ldrb	r4, [r0, #0]
 80002f2:	2c00      	cmp	r4, #0
 80002f4:	d0f2      	beq.n	80002dc <controlKey+0x190>
 80002f6:	4e45      	ldr	r6, [pc, #276]	; (800040c <controlKey+0x2c0>)
 80002f8:	7834      	ldrb	r4, [r6, #0]
 80002fa:	3401      	adds	r4, #1
 80002fc:	b2e4      	uxtb	r4, r4
 80002fe:	2c06      	cmp	r4, #6
 8000300:	bf92      	itee	ls
 8000302:	7034      	strbls	r4, [r6, #0]
 8000304:	7032      	strbhi	r2, [r6, #0]
 8000306:	7002      	strbhi	r2, [r0, #0]
 8000308:	e7e8      	b.n	80002dc <controlKey+0x190>
 800030a:	f000 f91b 	bl	8000544 <getCurrentTick>
 800030e:	f04f 0e00 	mov.w	lr, #0
 8000312:	f04f 0c01 	mov.w	ip, #1
 8000316:	4a3c      	ldr	r2, [pc, #240]	; (8000408 <controlKey+0x2bc>)
 8000318:	783b      	ldrb	r3, [r7, #0]
 800031a:	8010      	strh	r0, [r2, #0]
 800031c:	4a39      	ldr	r2, [pc, #228]	; (8000404 <controlKey+0x2b8>)
 800031e:	7831      	ldrb	r1, [r6, #0]
 8000320:	f884 e000 	strb.w	lr, [r4]
 8000324:	f882 c000 	strb.w	ip, [r2]
 8000328:	e7d8      	b.n	80002dc <controlKey+0x190>
 800032a:	4b38      	ldr	r3, [pc, #224]	; (800040c <controlKey+0x2c0>)
 800032c:	781b      	ldrb	r3, [r3, #0]
 800032e:	3b01      	subs	r3, #1
 8000330:	2b05      	cmp	r3, #5
 8000332:	d80b      	bhi.n	800034c <controlKey+0x200>
 8000334:	e8df f003 	tbb	[pc, r3]
 8000338:	3941767e 	.word	0x3941767e
 800033c:	2730      	.short	0x2730
 800033e:	4a34      	ldr	r2, [pc, #208]	; (8000410 <controlKey+0x2c4>)
 8000340:	7813      	ldrb	r3, [r2, #0]
 8000342:	2b00      	cmp	r3, #0
 8000344:	f040 808e 	bne.w	8000464 <controlKey+0x318>
 8000348:	2317      	movs	r3, #23
 800034a:	7013      	strb	r3, [r2, #0]
 800034c:	f001 fbae 	bl	8001aac <setTime>
 8000350:	783b      	ldrb	r3, [r7, #0]
 8000352:	7831      	ldrb	r1, [r6, #0]
 8000354:	e7c2      	b.n	80002dc <controlKey+0x190>
 8000356:	4b2d      	ldr	r3, [pc, #180]	; (800040c <controlKey+0x2c0>)
 8000358:	781b      	ldrb	r3, [r3, #0]
 800035a:	3b01      	subs	r3, #1
 800035c:	2b05      	cmp	r3, #5
 800035e:	d8f5      	bhi.n	800034c <controlKey+0x200>
 8000360:	a201      	add	r2, pc, #4	; (adr r2, 8000368 <controlKey+0x21c>)
 8000362:	f852 f023 	ldr.w	pc, [r2, r3, lsl #2]
 8000366:	bf00      	nop
 8000368:	0800033f 	.word	0x0800033f
 800036c:	08000445 	.word	0x08000445
 8000370:	08000479 	.word	0x08000479
 8000374:	0800046b 	.word	0x0800046b
 8000378:	0800045d 	.word	0x0800045d
 800037c:	08000451 	.word	0x08000451
 8000380:	783b      	ldrb	r3, [r7, #0]
 8000382:	7831      	ldrb	r1, [r6, #0]
 8000384:	e7aa      	b.n	80002dc <controlKey+0x190>
 8000386:	4a23      	ldr	r2, [pc, #140]	; (8000414 <controlKey+0x2c8>)
 8000388:	7813      	ldrb	r3, [r2, #0]
 800038a:	3301      	adds	r3, #1
 800038c:	b2db      	uxtb	r3, r3
 800038e:	2b63      	cmp	r3, #99	; 0x63
 8000390:	d900      	bls.n	8000394 <controlKey+0x248>
 8000392:	2300      	movs	r3, #0
 8000394:	7013      	strb	r3, [r2, #0]
 8000396:	e7d9      	b.n	800034c <controlKey+0x200>
 8000398:	4a1f      	ldr	r2, [pc, #124]	; (8000418 <controlKey+0x2cc>)
 800039a:	7813      	ldrb	r3, [r2, #0]
 800039c:	3301      	adds	r3, #1
 800039e:	b2db      	uxtb	r3, r3
 80003a0:	2b0c      	cmp	r3, #12
 80003a2:	d9f7      	bls.n	8000394 <controlKey+0x248>
 80003a4:	2301      	movs	r3, #1
 80003a6:	7013      	strb	r3, [r2, #0]
 80003a8:	e7d0      	b.n	800034c <controlKey+0x200>
 80003aa:	4a1c      	ldr	r2, [pc, #112]	; (800041c <controlKey+0x2d0>)
 80003ac:	7813      	ldrb	r3, [r2, #0]
 80003ae:	3301      	adds	r3, #1
 80003b0:	b2db      	uxtb	r3, r3
 80003b2:	2b1f      	cmp	r3, #31
 80003b4:	d8f6      	bhi.n	80003a4 <controlKey+0x258>
 80003b6:	7013      	strb	r3, [r2, #0]
 80003b8:	e7c8      	b.n	800034c <controlKey+0x200>
 80003ba:	4a19      	ldr	r2, [pc, #100]	; (8000420 <controlKey+0x2d4>)
 80003bc:	7813      	ldrb	r3, [r2, #0]
 80003be:	3301      	adds	r3, #1
 80003c0:	b2db      	uxtb	r3, r3
 80003c2:	2b07      	cmp	r3, #7
 80003c4:	d8ee      	bhi.n	80003a4 <controlKey+0x258>
 80003c6:	7013      	strb	r3, [r2, #0]
 80003c8:	e7c0      	b.n	800034c <controlKey+0x200>
 80003ca:	bf00      	nop
 80003cc:	40010800 	.word	0x40010800
 80003d0:	20000035 	.word	0x20000035
 80003d4:	20000034 	.word	0x20000034
 80003d8:	20000000 	.word	0x20000000
 80003dc:	20000036 	.word	0x20000036
 80003e0:	200005b1 	.word	0x200005b1
 80003e4:	200005b2 	.word	0x200005b2
 80003e8:	200005b5 	.word	0x200005b5
 80003ec:	200005b3 	.word	0x200005b3
 80003f0:	200005b4 	.word	0x200005b4
 80003f4:	2000003a 	.word	0x2000003a
 80003f8:	20000044 	.word	0x20000044
 80003fc:	2000003b 	.word	0x2000003b
 8000400:	20000001 	.word	0x20000001
 8000404:	2000003c 	.word	0x2000003c
 8000408:	20000038 	.word	0x20000038
 800040c:	2000003d 	.word	0x2000003d
 8000410:	200005a7 	.word	0x200005a7
 8000414:	200005b0 	.word	0x200005b0
 8000418:	200005a9 	.word	0x200005a9
 800041c:	200005a5 	.word	0x200005a5
 8000420:	200005a6 	.word	0x200005a6
 8000424:	4a19      	ldr	r2, [pc, #100]	; (800048c <controlKey+0x340>)
 8000426:	7813      	ldrb	r3, [r2, #0]
 8000428:	3301      	adds	r3, #1
 800042a:	b2db      	uxtb	r3, r3
 800042c:	2b3b      	cmp	r3, #59	; 0x3b
 800042e:	d8b0      	bhi.n	8000392 <controlKey+0x246>
 8000430:	7013      	strb	r3, [r2, #0]
 8000432:	e78b      	b.n	800034c <controlKey+0x200>
 8000434:	4a16      	ldr	r2, [pc, #88]	; (8000490 <controlKey+0x344>)
 8000436:	7813      	ldrb	r3, [r2, #0]
 8000438:	3301      	adds	r3, #1
 800043a:	b2db      	uxtb	r3, r3
 800043c:	2b17      	cmp	r3, #23
 800043e:	d8a8      	bhi.n	8000392 <controlKey+0x246>
 8000440:	7013      	strb	r3, [r2, #0]
 8000442:	e783      	b.n	800034c <controlKey+0x200>
 8000444:	4a11      	ldr	r2, [pc, #68]	; (800048c <controlKey+0x340>)
 8000446:	7813      	ldrb	r3, [r2, #0]
 8000448:	b963      	cbnz	r3, 8000464 <controlKey+0x318>
 800044a:	233b      	movs	r3, #59	; 0x3b
 800044c:	7013      	strb	r3, [r2, #0]
 800044e:	e77d      	b.n	800034c <controlKey+0x200>
 8000450:	4a10      	ldr	r2, [pc, #64]	; (8000494 <controlKey+0x348>)
 8000452:	7813      	ldrb	r3, [r2, #0]
 8000454:	b933      	cbnz	r3, 8000464 <controlKey+0x318>
 8000456:	2363      	movs	r3, #99	; 0x63
 8000458:	7013      	strb	r3, [r2, #0]
 800045a:	e777      	b.n	800034c <controlKey+0x200>
 800045c:	4a0e      	ldr	r2, [pc, #56]	; (8000498 <controlKey+0x34c>)
 800045e:	7813      	ldrb	r3, [r2, #0]
 8000460:	2b01      	cmp	r3, #1
 8000462:	d010      	beq.n	8000486 <controlKey+0x33a>
 8000464:	3b01      	subs	r3, #1
 8000466:	7013      	strb	r3, [r2, #0]
 8000468:	e770      	b.n	800034c <controlKey+0x200>
 800046a:	4a0c      	ldr	r2, [pc, #48]	; (800049c <controlKey+0x350>)
 800046c:	7813      	ldrb	r3, [r2, #0]
 800046e:	2b01      	cmp	r3, #1
 8000470:	d1f8      	bne.n	8000464 <controlKey+0x318>
 8000472:	231f      	movs	r3, #31
 8000474:	7013      	strb	r3, [r2, #0]
 8000476:	e769      	b.n	800034c <controlKey+0x200>
 8000478:	4a09      	ldr	r2, [pc, #36]	; (80004a0 <controlKey+0x354>)
 800047a:	7813      	ldrb	r3, [r2, #0]
 800047c:	2b01      	cmp	r3, #1
 800047e:	d1f1      	bne.n	8000464 <controlKey+0x318>
 8000480:	2307      	movs	r3, #7
 8000482:	7013      	strb	r3, [r2, #0]
 8000484:	e762      	b.n	800034c <controlKey+0x200>
 8000486:	230c      	movs	r3, #12
 8000488:	7013      	strb	r3, [r2, #0]
 800048a:	e75f      	b.n	800034c <controlKey+0x200>
 800048c:	200005a8 	.word	0x200005a8
 8000490:	200005a7 	.word	0x200005a7
 8000494:	200005b0 	.word	0x200005b0
 8000498:	200005a9 	.word	0x200005a9
 800049c:	200005a5 	.word	0x200005a5
 80004a0:	200005a6 	.word	0x200005a6

080004a4 <getStateNextSetting>:
 80004a4:	4b01      	ldr	r3, [pc, #4]	; (80004ac <getStateNextSetting+0x8>)
 80004a6:	7818      	ldrb	r0, [r3, #0]
 80004a8:	4770      	bx	lr
 80004aa:	bf00      	nop
 80004ac:	2000003d 	.word	0x2000003d

080004b0 <SystemClock_Config>:
 80004b0:	b530      	push	{r4, r5, lr}
 80004b2:	2201      	movs	r2, #1
 80004b4:	2400      	movs	r4, #0
 80004b6:	f44f 3380 	mov.w	r3, #65536	; 0x10000
 80004ba:	2502      	movs	r5, #2
 80004bc:	f44f 11e0 	mov.w	r1, #1835008	; 0x1c0000
 80004c0:	b091      	sub	sp, #68	; 0x44
 80004c2:	a806      	add	r0, sp, #24
 80004c4:	9206      	str	r2, [sp, #24]
 80004c6:	920a      	str	r2, [sp, #40]	; 0x28
 80004c8:	9307      	str	r3, [sp, #28]
 80004ca:	e9cd 530d 	strd	r5, r3, [sp, #52]	; 0x34
 80004ce:	910f      	str	r1, [sp, #60]	; 0x3c
 80004d0:	9408      	str	r4, [sp, #32]
 80004d2:	9401      	str	r4, [sp, #4]
 80004d4:	9409      	str	r4, [sp, #36]	; 0x24
 80004d6:	e9cd 440b 	strd	r4, r4, [sp, #44]	; 0x2c
 80004da:	e9cd 4402 	strd	r4, r4, [sp, #8]
 80004de:	e9cd 4404 	strd	r4, r4, [sp, #16]
 80004e2:	f003 fdb1 	bl	8004048 <HAL_RCC_OscConfig>
 80004e6:	220f      	movs	r2, #15
 80004e8:	f44f 6380 	mov.w	r3, #1024	; 0x400
 80004ec:	a801      	add	r0, sp, #4
 80004ee:	4629      	mov	r1, r5
 80004f0:	e9cd 5402 	strd	r5, r4, [sp, #8]
 80004f4:	9405      	str	r4, [sp, #20]
 80004f6:	9201      	str	r2, [sp, #4]
 80004f8:	9304      	str	r3, [sp, #16]
 80004fa:	f003 ff9d 	bl	8004438 <HAL_RCC_ClockConfig>
 80004fe:	b011      	add	sp, #68	; 0x44
 8000500:	bd30      	pop	{r4, r5, pc}
 8000502:	bf00      	nop

08000504 <HAL_TIM_PeriodElapsedCallback>:
 8000504:	b508      	push	{r3, lr}
 8000506:	f000 fae3 	bl	8000ad0 <showTablo>
 800050a:	f64f 71ff 	movw	r1, #65535	; 0xffff
 800050e:	4a04      	ldr	r2, [pc, #16]	; (8000520 <HAL_TIM_PeriodElapsedCallback+0x1c>)
 8000510:	8813      	ldrh	r3, [r2, #0]
 8000512:	428b      	cmp	r3, r1
 8000514:	bf0e      	itee	eq
 8000516:	2300      	moveq	r3, #0
 8000518:	3301      	addne	r3, #1
 800051a:	b29b      	uxthne	r3, r3
 800051c:	8013      	strh	r3, [r2, #0]
 800051e:	bd08      	pop	{r3, pc}
 8000520:	2000003e 	.word	0x2000003e

08000524 <controlTickTime>:
 8000524:	4b06      	ldr	r3, [pc, #24]	; (8000540 <controlTickTime+0x1c>)
 8000526:	881b      	ldrh	r3, [r3, #0]
 8000528:	4283      	cmp	r3, r0
 800052a:	d203      	bcs.n	8000534 <controlTickTime+0x10>
 800052c:	43c2      	mvns	r2, r0
 800052e:	2000      	movs	r0, #0
 8000530:	1a89      	subs	r1, r1, r2
 8000532:	b289      	uxth	r1, r1
 8000534:	1a18      	subs	r0, r3, r0
 8000536:	4288      	cmp	r0, r1
 8000538:	bfb4      	ite	lt
 800053a:	2000      	movlt	r0, #0
 800053c:	2001      	movge	r0, #1
 800053e:	4770      	bx	lr
 8000540:	2000003e 	.word	0x2000003e

08000544 <getCurrentTick>:
 8000544:	4b01      	ldr	r3, [pc, #4]	; (800054c <getCurrentTick+0x8>)
 8000546:	8818      	ldrh	r0, [r3, #0]
 8000548:	4770      	bx	lr
 800054a:	bf00      	nop
 800054c:	2000003e 	.word	0x2000003e

08000550 <outputMainScreen>:
 8000550:	b510      	push	{r4, lr}
 8000552:	f001 fc17 	bl	8001d84 <getTimeH>
 8000556:	4c3f      	ldr	r4, [pc, #252]	; (8000654 <outputMainScreen+0x104>)
 8000558:	4601      	mov	r1, r0
 800055a:	2000      	movs	r0, #0
 800055c:	f000 fb5c 	bl	8000c18 <showString>
 8000560:	7821      	ldrb	r1, [r4, #0]
 8000562:	2900      	cmp	r1, #0
 8000564:	d058      	beq.n	8000618 <outputMainScreen+0xc8>
 8000566:	2200      	movs	r2, #0
 8000568:	4b3b      	ldr	r3, [pc, #236]	; (8000658 <outputMainScreen+0x108>)
 800056a:	493c      	ldr	r1, [pc, #240]	; (800065c <outputMainScreen+0x10c>)
 800056c:	8818      	ldrh	r0, [r3, #0]
 800056e:	4b3c      	ldr	r3, [pc, #240]	; (8000660 <outputMainScreen+0x110>)
 8000570:	8008      	strh	r0, [r1, #0]
 8000572:	7818      	ldrb	r0, [r3, #0]
 8000574:	7022      	strb	r2, [r4, #0]
 8000576:	2800      	cmp	r0, #0
 8000578:	d161      	bne.n	800063e <outputMainScreen+0xee>
 800057a:	493a      	ldr	r1, [pc, #232]	; (8000664 <outputMainScreen+0x114>)
 800057c:	2006      	movs	r0, #6
 800057e:	f000 fb4b 	bl	8000c18 <showString>
 8000582:	f001 fbdd 	bl	8001d40 <getTimeMi>
 8000586:	4601      	mov	r1, r0
 8000588:	2009      	movs	r0, #9
 800058a:	f000 fb45 	bl	8000c18 <showString>
 800058e:	f001 fc3d 	bl	8001e0c <getTimeDayW>
 8000592:	4601      	mov	r1, r0
 8000594:	2010      	movs	r0, #16
 8000596:	f000 feb9 	bl	800130c <setTicker>
 800059a:	f001 fd6d 	bl	8002078 <getSizeStringDay>
 800059e:	eb00 0040 	add.w	r0, r0, r0, lsl #1
 80005a2:	b2c4      	uxtb	r4, r0
 80005a4:	f001 fa50 	bl	8001a48 <temperatureDs3231>
 80005a8:	f104 0013 	add.w	r0, r4, #19
 80005ac:	b2c0      	uxtb	r0, r0
 80005ae:	492e      	ldr	r1, [pc, #184]	; (8000668 <outputMainScreen+0x118>)
 80005b0:	f000 feac 	bl	800130c <setTicker>
 80005b4:	f104 0131 	add.w	r1, r4, #49	; 0x31
 80005b8:	b2c9      	uxtb	r1, r1
 80005ba:	2001      	movs	r0, #1
 80005bc:	f000 feb2 	bl	8001324 <showTicker>
 80005c0:	f001 fc66 	bl	8001e90 <getTimeDM>
 80005c4:	4601      	mov	r1, r0
 80005c6:	2011      	movs	r0, #17
 80005c8:	f000 fea0 	bl	800130c <setTicker>
 80005cc:	4927      	ldr	r1, [pc, #156]	; (800066c <outputMainScreen+0x11c>)
 80005ce:	2017      	movs	r0, #23
 80005d0:	f000 fe9c 	bl	800130c <setTicker>
 80005d4:	f001 fc7e 	bl	8001ed4 <getTimeMo>
 80005d8:	4601      	mov	r1, r0
 80005da:	201a      	movs	r0, #26
 80005dc:	f000 fe96 	bl	800130c <setTicker>
 80005e0:	4922      	ldr	r1, [pc, #136]	; (800066c <outputMainScreen+0x11c>)
 80005e2:	2020      	movs	r0, #32
 80005e4:	f000 fe92 	bl	800130c <setTicker>
 80005e8:	f001 fd20 	bl	800202c <getTimeY>
 80005ec:	4920      	ldr	r1, [pc, #128]	; (8000670 <outputMainScreen+0x120>)
 80005ee:	2023      	movs	r0, #35	; 0x23
 80005f0:	f000 fe8c 	bl	800130c <setTicker>
 80005f4:	f001 fc90 	bl	8001f18 <getTimeMounth>
 80005f8:	4601      	mov	r1, r0
 80005fa:	2032      	movs	r0, #50	; 0x32
 80005fc:	f000 fe86 	bl	800130c <setTicker>
 8000600:	f001 fd40 	bl	8002084 <getSizeStringMounth>
 8000604:	e8bd 4010 	ldmia.w	sp!, {r4, lr}
 8000608:	eb00 0040 	add.w	r0, r0, r0, lsl #1
 800060c:	f100 013b 	add.w	r1, r0, #59	; 0x3b
 8000610:	b2c9      	uxtb	r1, r1
 8000612:	2002      	movs	r0, #2
 8000614:	f000 be86 	b.w	8001324 <showTicker>
 8000618:	4b10      	ldr	r3, [pc, #64]	; (800065c <outputMainScreen+0x10c>)
 800061a:	4a0f      	ldr	r2, [pc, #60]	; (8000658 <outputMainScreen+0x108>)
 800061c:	881b      	ldrh	r3, [r3, #0]
 800061e:	8810      	ldrh	r0, [r2, #0]
 8000620:	4283      	cmp	r3, r0
 8000622:	d811      	bhi.n	8000648 <outputMainScreen+0xf8>
 8000624:	f44f 72fa 	mov.w	r2, #500	; 0x1f4
 8000628:	1ac3      	subs	r3, r0, r3
 800062a:	490d      	ldr	r1, [pc, #52]	; (8000660 <outputMainScreen+0x110>)
 800062c:	4293      	cmp	r3, r2
 800062e:	7808      	ldrb	r0, [r1, #0]
 8000630:	dba1      	blt.n	8000576 <outputMainScreen+0x26>
 8000632:	2301      	movs	r3, #1
 8000634:	4058      	eors	r0, r3
 8000636:	7008      	strb	r0, [r1, #0]
 8000638:	7023      	strb	r3, [r4, #0]
 800063a:	2800      	cmp	r0, #0
 800063c:	d09d      	beq.n	800057a <outputMainScreen+0x2a>
 800063e:	490d      	ldr	r1, [pc, #52]	; (8000674 <outputMainScreen+0x124>)
 8000640:	2006      	movs	r0, #6
 8000642:	f000 fae9 	bl	8000c18 <showString>
 8000646:	e79c      	b.n	8000582 <outputMainScreen+0x32>
 8000648:	43da      	mvns	r2, r3
 800064a:	f5c2 72fa 	rsb	r2, r2, #500	; 0x1f4
 800064e:	460b      	mov	r3, r1
 8000650:	b292      	uxth	r2, r2
 8000652:	e7e9      	b.n	8000628 <outputMainScreen+0xd8>
 8000654:	20000003 	.word	0x20000003
 8000658:	2000003e 	.word	0x2000003e
 800065c:	20000042 	.word	0x20000042
 8000660:	20000004 	.word	0x20000004
 8000664:	0800501c 	.word	0x0800501c
 8000668:	200006f0 	.word	0x200006f0
 800066c:	08005020 	.word	0x08005020
 8000670:	200006e8 	.word	0x200006e8
 8000674:	08005018 	.word	0x08005018

08000678 <outputSettingsScreen>:
 8000678:	b508      	push	{r3, lr}
 800067a:	f001 fb83 	bl	8001d84 <getTimeH>
 800067e:	4601      	mov	r1, r0
 8000680:	2000      	movs	r0, #0
 8000682:	f000 fac9 	bl	8000c18 <showString>
 8000686:	f001 fb5b 	bl	8001d40 <getTimeMi>
 800068a:	4601      	mov	r1, r0
 800068c:	2009      	movs	r0, #9
 800068e:	f000 fac3 	bl	8000c18 <showString>
 8000692:	f001 fb99 	bl	8001dc8 <getTimeDW>
 8000696:	4601      	mov	r1, r0
 8000698:	2001      	movs	r0, #1
 800069a:	f000 fabd 	bl	8000c18 <showString>
 800069e:	f001 fbf7 	bl	8001e90 <getTimeDM>
 80006a2:	4601      	mov	r1, r0
 80006a4:	200a      	movs	r0, #10
 80006a6:	f000 fab7 	bl	8000c18 <showString>
 80006aa:	f001 fc13 	bl	8001ed4 <getTimeMo>
 80006ae:	4601      	mov	r1, r0
 80006b0:	2002      	movs	r0, #2
 80006b2:	f000 fab1 	bl	8000c18 <showString>
 80006b6:	f001 fc97 	bl	8001fe8 <getTimeYe>
 80006ba:	4601      	mov	r1, r0
 80006bc:	200b      	movs	r0, #11
 80006be:	f000 faab 	bl	8000c18 <showString>
 80006c2:	f7ff feef 	bl	80004a4 <getStateNextSetting>
 80006c6:	2801      	cmp	r0, #1
 80006c8:	d031      	beq.n	800072e <outputSettingsScreen+0xb6>
 80006ca:	f7ff feeb 	bl	80004a4 <getStateNextSetting>
 80006ce:	2802      	cmp	r0, #2
 80006d0:	d01b      	beq.n	800070a <outputSettingsScreen+0x92>
 80006d2:	f7ff fee7 	bl	80004a4 <getStateNextSetting>
 80006d6:	2803      	cmp	r0, #3
 80006d8:	d038      	beq.n	800074c <outputSettingsScreen+0xd4>
 80006da:	f7ff fee3 	bl	80004a4 <getStateNextSetting>
 80006de:	2804      	cmp	r0, #4
 80006e0:	d03a      	beq.n	8000758 <outputSettingsScreen+0xe0>
 80006e2:	f7ff fedf 	bl	80004a4 <getStateNextSetting>
 80006e6:	2805      	cmp	r0, #5
 80006e8:	d023      	beq.n	8000732 <outputSettingsScreen+0xba>
 80006ea:	f7ff fedb 	bl	80004a4 <getStateNextSetting>
 80006ee:	2806      	cmp	r0, #6
 80006f0:	d117      	bne.n	8000722 <outputSettingsScreen+0xaa>
 80006f2:	491c      	ldr	r1, [pc, #112]	; (8000764 <outputSettingsScreen+0xec>)
 80006f4:	f000 fa90 	bl	8000c18 <showString>
 80006f8:	491a      	ldr	r1, [pc, #104]	; (8000764 <outputSettingsScreen+0xec>)
 80006fa:	2007      	movs	r0, #7
 80006fc:	f000 fa8c 	bl	8000c18 <showString>
 8000700:	4919      	ldr	r1, [pc, #100]	; (8000768 <outputSettingsScreen+0xf0>)
 8000702:	2008      	movs	r0, #8
 8000704:	f000 fa88 	bl	8000c18 <showString>
 8000708:	e00b      	b.n	8000722 <outputSettingsScreen+0xaa>
 800070a:	4917      	ldr	r1, [pc, #92]	; (8000768 <outputSettingsScreen+0xf0>)
 800070c:	2006      	movs	r0, #6
 800070e:	f000 fa83 	bl	8000c18 <showString>
 8000712:	4914      	ldr	r1, [pc, #80]	; (8000764 <outputSettingsScreen+0xec>)
 8000714:	2007      	movs	r0, #7
 8000716:	f000 fa7f 	bl	8000c18 <showString>
 800071a:	4912      	ldr	r1, [pc, #72]	; (8000764 <outputSettingsScreen+0xec>)
 800071c:	2008      	movs	r0, #8
 800071e:	f000 fa7b 	bl	8000c18 <showString>
 8000722:	2301      	movs	r3, #1
 8000724:	4911      	ldr	r1, [pc, #68]	; (800076c <outputSettingsScreen+0xf4>)
 8000726:	4a12      	ldr	r2, [pc, #72]	; (8000770 <outputSettingsScreen+0xf8>)
 8000728:	700b      	strb	r3, [r1, #0]
 800072a:	7013      	strb	r3, [r2, #0]
 800072c:	bd08      	pop	{r3, pc}
 800072e:	4911      	ldr	r1, [pc, #68]	; (8000774 <outputSettingsScreen+0xfc>)
 8000730:	e7ec      	b.n	800070c <outputSettingsScreen+0x94>
 8000732:	490c      	ldr	r1, [pc, #48]	; (8000764 <outputSettingsScreen+0xec>)
 8000734:	2006      	movs	r0, #6
 8000736:	f000 fa6f 	bl	8000c18 <showString>
 800073a:	490a      	ldr	r1, [pc, #40]	; (8000764 <outputSettingsScreen+0xec>)
 800073c:	2007      	movs	r0, #7
 800073e:	f000 fa6b 	bl	8000c18 <showString>
 8000742:	490c      	ldr	r1, [pc, #48]	; (8000774 <outputSettingsScreen+0xfc>)
 8000744:	2008      	movs	r0, #8
 8000746:	f000 fa67 	bl	8000c18 <showString>
 800074a:	e7ea      	b.n	8000722 <outputSettingsScreen+0xaa>
 800074c:	4905      	ldr	r1, [pc, #20]	; (8000764 <outputSettingsScreen+0xec>)
 800074e:	2006      	movs	r0, #6
 8000750:	f000 fa62 	bl	8000c18 <showString>
 8000754:	4907      	ldr	r1, [pc, #28]	; (8000774 <outputSettingsScreen+0xfc>)
 8000756:	e7dd      	b.n	8000714 <outputSettingsScreen+0x9c>
 8000758:	4902      	ldr	r1, [pc, #8]	; (8000764 <outputSettingsScreen+0xec>)
 800075a:	2006      	movs	r0, #6
 800075c:	f000 fa5c 	bl	8000c18 <showString>
 8000760:	4901      	ldr	r1, [pc, #4]	; (8000768 <outputSettingsScreen+0xf0>)
 8000762:	e7d7      	b.n	8000714 <outputSettingsScreen+0x9c>
 8000764:	0800501c 	.word	0x0800501c
 8000768:	08005028 	.word	0x08005028
 800076c:	20000004 	.word	0x20000004
 8000770:	20000003 	.word	0x20000003
 8000774:	08005024 	.word	0x08005024

08000778 <main>:
 8000778:	e92d 4ff0 	stmdb	sp!, {r4, r5, r6, r7, r8, r9, sl, fp, lr}
 800077c:	2600      	movs	r6, #0
 800077e:	b09d      	sub	sp, #116	; 0x74
 8000780:	f001 fece 	bl	8002520 <HAL_Init>
 8000784:	f7ff fe94 	bl	80004b0 <SystemClock_Config>
 8000788:	2201      	movs	r2, #1
 800078a:	e9cd 6614 	strd	r6, r6, [sp, #80]	; 0x50
 800078e:	e9cd 6616 	strd	r6, r6, [sp, #88]	; 0x58
 8000792:	4bae      	ldr	r3, [pc, #696]	; (8000a4c <main+0x2d4>)
 8000794:	4617      	mov	r7, r2
 8000796:	6999      	ldr	r1, [r3, #24]
 8000798:	f04f 0820 	mov.w	r8, #32
 800079c:	f041 0110 	orr.w	r1, r1, #16
 80007a0:	6199      	str	r1, [r3, #24]
 80007a2:	f44f 5100 	mov.w	r1, #8192	; 0x2000
 80007a6:	6998      	ldr	r0, [r3, #24]
 80007a8:	460d      	mov	r5, r1
 80007aa:	f000 0010 	and.w	r0, r0, #16
 80007ae:	9003      	str	r0, [sp, #12]
 80007b0:	9803      	ldr	r0, [sp, #12]
 80007b2:	699c      	ldr	r4, [r3, #24]
 80007b4:	48a6      	ldr	r0, [pc, #664]	; (8000a50 <main+0x2d8>)
 80007b6:	f044 0420 	orr.w	r4, r4, #32
 80007ba:	619c      	str	r4, [r3, #24]
 80007bc:	699c      	ldr	r4, [r3, #24]
 80007be:	f44f 5a80 	mov.w	sl, #4096	; 0x1000
 80007c2:	f004 0420 	and.w	r4, r4, #32
 80007c6:	9404      	str	r4, [sp, #16]
 80007c8:	9c04      	ldr	r4, [sp, #16]
 80007ca:	699c      	ldr	r4, [r3, #24]
 80007cc:	f8df 92ac 	ldr.w	r9, [pc, #684]	; 8000a7c <main+0x304>
 80007d0:	f044 0404 	orr.w	r4, r4, #4
 80007d4:	619c      	str	r4, [r3, #24]
 80007d6:	f8d3 c018 	ldr.w	ip, [r3, #24]
 80007da:	2403      	movs	r4, #3
 80007dc:	f00c 0c04 	and.w	ip, ip, #4
 80007e0:	f8cd c014 	str.w	ip, [sp, #20]
 80007e4:	f8dd c014 	ldr.w	ip, [sp, #20]
 80007e8:	f8d3 c018 	ldr.w	ip, [r3, #24]
 80007ec:	f04c 0c08 	orr.w	ip, ip, #8
 80007f0:	f8c3 c018 	str.w	ip, [r3, #24]
 80007f4:	699b      	ldr	r3, [r3, #24]
 80007f6:	f003 0308 	and.w	r3, r3, #8
 80007fa:	9306      	str	r3, [sp, #24]
 80007fc:	9b06      	ldr	r3, [sp, #24]
 80007fe:	f002 f871 	bl	80028e4 <HAL_GPIO_WritePin>
 8000802:	463a      	mov	r2, r7
 8000804:	f44f 411e 	mov.w	r1, #40448	; 0x9e00
 8000808:	4892      	ldr	r0, [pc, #584]	; (8000a54 <main+0x2dc>)
 800080a:	f002 f86b 	bl	80028e4 <HAL_GPIO_WritePin>
 800080e:	463a      	mov	r2, r7
 8000810:	2158      	movs	r1, #88	; 0x58
 8000812:	4891      	ldr	r0, [pc, #580]	; (8000a58 <main+0x2e0>)
 8000814:	f002 f866 	bl	80028e4 <HAL_GPIO_WritePin>
 8000818:	4632      	mov	r2, r6
 800081a:	2180      	movs	r1, #128	; 0x80
 800081c:	488e      	ldr	r0, [pc, #568]	; (8000a58 <main+0x2e0>)
 800081e:	f002 f861 	bl	80028e4 <HAL_GPIO_WritePin>
 8000822:	2302      	movs	r3, #2
 8000824:	a914      	add	r1, sp, #80	; 0x50
 8000826:	488a      	ldr	r0, [pc, #552]	; (8000a50 <main+0x2d8>)
 8000828:	e9cd 5714 	strd	r5, r7, [sp, #80]	; 0x50
 800082c:	9317      	str	r3, [sp, #92]	; 0x5c
 800082e:	9616      	str	r6, [sp, #88]	; 0x58
 8000830:	f001 ff58 	bl	80026e4 <HAL_GPIO_Init>
 8000834:	2370      	movs	r3, #112	; 0x70
 8000836:	a914      	add	r1, sp, #80	; 0x50
 8000838:	4886      	ldr	r0, [pc, #536]	; (8000a54 <main+0x2dc>)
 800083a:	9314      	str	r3, [sp, #80]	; 0x50
 800083c:	e9cd 6615 	strd	r6, r6, [sp, #84]	; 0x54
 8000840:	f001 ff50 	bl	80026e4 <HAL_GPIO_Init>
 8000844:	f44f 431e 	mov.w	r3, #40448	; 0x9e00
 8000848:	a914      	add	r1, sp, #80	; 0x50
 800084a:	4882      	ldr	r0, [pc, #520]	; (8000a54 <main+0x2dc>)
 800084c:	e9cd 7615 	strd	r7, r6, [sp, #84]	; 0x54
 8000850:	9314      	str	r3, [sp, #80]	; 0x50
 8000852:	9417      	str	r4, [sp, #92]	; 0x5c
 8000854:	f001 ff46 	bl	80026e4 <HAL_GPIO_Init>
 8000858:	23d8      	movs	r3, #216	; 0xd8
 800085a:	a914      	add	r1, sp, #80	; 0x50
 800085c:	487e      	ldr	r0, [pc, #504]	; (8000a58 <main+0x2e0>)
 800085e:	e9cd 7615 	strd	r7, r6, [sp, #84]	; 0x54
 8000862:	9417      	str	r4, [sp, #92]	; 0x5c
 8000864:	9314      	str	r3, [sp, #80]	; 0x50
 8000866:	f44f 7482 	mov.w	r4, #260	; 0x104
 800086a:	f001 ff3b 	bl	80026e4 <HAL_GPIO_Init>
 800086e:	f44f 7100 	mov.w	r1, #512	; 0x200
 8000872:	220a      	movs	r2, #10
 8000874:	4b79      	ldr	r3, [pc, #484]	; (8000a5c <main+0x2e4>)
 8000876:	f8df c208 	ldr.w	ip, [pc, #520]	; 8000a80 <main+0x308>
 800087a:	4618      	mov	r0, r3
 800087c:	e9c3 c400 	strd	ip, r4, [r3]
 8000880:	6199      	str	r1, [r3, #24]
 8000882:	62da      	str	r2, [r3, #44]	; 0x2c
 8000884:	e9c3 6602 	strd	r6, r6, [r3, #8]
 8000888:	e9c3 6604 	strd	r6, r6, [r3, #16]
 800088c:	e9c3 6607 	strd	r6, r6, [r3, #28]
 8000890:	e9c3 6609 	strd	r6, r6, [r3, #36]	; 0x24
 8000894:	f003 feac 	bl	80045f0 <HAL_SPI_Init>
 8000898:	4642      	mov	r2, r8
 800089a:	4631      	mov	r1, r6
 800089c:	a814      	add	r0, sp, #80	; 0x50
 800089e:	9609      	str	r6, [sp, #36]	; 0x24
 80008a0:	9607      	str	r6, [sp, #28]
 80008a2:	960d      	str	r6, [sp, #52]	; 0x34
 80008a4:	e9cd 660a 	strd	r6, r6, [sp, #40]	; 0x28
 80008a8:	960c      	str	r6, [sp, #48]	; 0x30
 80008aa:	9608      	str	r6, [sp, #32]
 80008ac:	e9cd 660e 	strd	r6, r6, [sp, #56]	; 0x38
 80008b0:	e9cd 6610 	strd	r6, r6, [sp, #64]	; 0x40
 80008b4:	e9cd 6612 	strd	r6, r6, [sp, #72]	; 0x48
 80008b8:	f004 fb91 	bl	8004fde <memset>
 80008bc:	23ff      	movs	r3, #255	; 0xff
 80008be:	4c68      	ldr	r4, [pc, #416]	; (8000a60 <main+0x2e8>)
 80008c0:	4620      	mov	r0, r4
 80008c2:	60e3      	str	r3, [r4, #12]
 80008c4:	f8c4 9000 	str.w	r9, [r4]
 80008c8:	e9c4 6601 	strd	r6, r6, [r4, #4]
 80008cc:	e9c4 6604 	strd	r6, r6, [r4, #16]
 80008d0:	61a6      	str	r6, [r4, #24]
 80008d2:	f003 ffe3 	bl	800489c <HAL_TIM_Base_Init>
 80008d6:	a909      	add	r1, sp, #36	; 0x24
 80008d8:	4620      	mov	r0, r4
 80008da:	f8cd a024 	str.w	sl, [sp, #36]	; 0x24
 80008de:	f004 f9a7 	bl	8004c30 <HAL_TIM_ConfigClockSource>
 80008e2:	4620      	mov	r0, r4
 80008e4:	f004 f83a 	bl	800495c <HAL_TIM_PWM_Init>
 80008e8:	a907      	add	r1, sp, #28
 80008ea:	4620      	mov	r0, r4
 80008ec:	e9cd 6607 	strd	r6, r6, [sp, #28]
 80008f0:	f004 faf6 	bl	8004ee0 <HAL_TIMEx_MasterConfigSynchronization>
 80008f4:	2360      	movs	r3, #96	; 0x60
 80008f6:	4632      	mov	r2, r6
 80008f8:	a90d      	add	r1, sp, #52	; 0x34
 80008fa:	4620      	mov	r0, r4
 80008fc:	930d      	str	r3, [sp, #52]	; 0x34
 80008fe:	e9cd 660e 	strd	r6, r6, [sp, #56]	; 0x38
 8000902:	e9cd 6610 	strd	r6, r6, [sp, #64]	; 0x40
 8000906:	e9cd 6612 	strd	r6, r6, [sp, #72]	; 0x48
 800090a:	f004 f897 	bl	8004a3c <HAL_TIM_PWM_ConfigChannel>
 800090e:	a914      	add	r1, sp, #80	; 0x50
 8000910:	4620      	mov	r0, r4
 8000912:	9519      	str	r5, [sp, #100]	; 0x64
 8000914:	e9cd 6614 	strd	r6, r6, [sp, #80]	; 0x50
 8000918:	e9cd 6616 	strd	r6, r6, [sp, #88]	; 0x58
 800091c:	9618      	str	r6, [sp, #96]	; 0x60
 800091e:	961b      	str	r6, [sp, #108]	; 0x6c
 8000920:	f004 fb00 	bl	8004f24 <HAL_TIMEx_ConfigBreakDeadTime>
 8000924:	4620      	mov	r0, r4
 8000926:	f001 fd39 	bl	800239c <HAL_TIM_MspPostInit>
 800092a:	2247      	movs	r2, #71	; 0x47
 800092c:	f240 33e7 	movw	r3, #999	; 0x3e7
 8000930:	f04f 4180 	mov.w	r1, #1073741824	; 0x40000000
 8000934:	4d4b      	ldr	r5, [pc, #300]	; (8000a64 <main+0x2ec>)
 8000936:	9614      	str	r6, [sp, #80]	; 0x50
 8000938:	4628      	mov	r0, r5
 800093a:	e9c5 1200 	strd	r1, r2, [r5]
 800093e:	60eb      	str	r3, [r5, #12]
 8000940:	e9cd 6615 	strd	r6, r6, [sp, #84]	; 0x54
 8000944:	9617      	str	r6, [sp, #92]	; 0x5c
 8000946:	e9cd 660d 	strd	r6, r6, [sp, #52]	; 0x34
 800094a:	60ae      	str	r6, [r5, #8]
 800094c:	612e      	str	r6, [r5, #16]
 800094e:	61ae      	str	r6, [r5, #24]
 8000950:	f003 ffa4 	bl	800489c <HAL_TIM_Base_Init>
 8000954:	a914      	add	r1, sp, #80	; 0x50
 8000956:	4628      	mov	r0, r5
 8000958:	f8cd a050 	str.w	sl, [sp, #80]	; 0x50
 800095c:	f004 f968 	bl	8004c30 <HAL_TIM_ConfigClockSource>
 8000960:	a90d      	add	r1, sp, #52	; 0x34
 8000962:	4628      	mov	r0, r5
 8000964:	e9cd 860d 	strd	r8, r6, [sp, #52]	; 0x34
 8000968:	f004 faba 	bl	8004ee0 <HAL_TIMEx_MasterConfigSynchronization>
 800096c:	f44f 4280 	mov.w	r2, #16384	; 0x4000
 8000970:	4b3d      	ldr	r3, [pc, #244]	; (8000a68 <main+0x2f0>)
 8000972:	f8df c110 	ldr.w	ip, [pc, #272]	; 8000a84 <main+0x30c>
 8000976:	493d      	ldr	r1, [pc, #244]	; (8000a6c <main+0x2f4>)
 8000978:	4618      	mov	r0, r3
 800097a:	e9c3 c100 	strd	ip, r1, [r3]
 800097e:	e9c3 6602 	strd	r6, r6, [r3, #8]
 8000982:	e9c3 6605 	strd	r6, r6, [r3, #20]
 8000986:	e9c3 6607 	strd	r6, r6, [r3, #28]
 800098a:	611a      	str	r2, [r3, #16]
 800098c:	f001 ffb4 	bl	80028f8 <HAL_I2C_Init>
 8000990:	4628      	mov	r0, r5
 8000992:	f003 ffd1 	bl	8004938 <HAL_TIM_Base_Start_IT>
 8000996:	4631      	mov	r1, r6
 8000998:	4620      	mov	r0, r4
 800099a:	4c35      	ldr	r4, [pc, #212]	; (8000a70 <main+0x2f8>)
 800099c:	f004 f82c 	bl	80049f8 <HAL_TIM_PWM_Start>
 80009a0:	f8c9 7034 	str.w	r7, [r9, #52]	; 0x34
 80009a4:	f000 f874 	bl	8000a90 <initTablo>
 80009a8:	f8df a0dc 	ldr.w	sl, [pc, #220]	; 8000a88 <main+0x310>
 80009ac:	9701      	str	r7, [sp, #4]
 80009ae:	f001 f927 	bl	8001c00 <getRTC>
 80009b2:	4b30      	ldr	r3, [pc, #192]	; (8000a74 <main+0x2fc>)
 80009b4:	7820      	ldrb	r0, [r4, #0]
 80009b6:	f893 9000 	ldrb.w	r9, [r3]
 80009ba:	f8df 80d0 	ldr.w	r8, [pc, #208]	; 8000a8c <main+0x314>
 80009be:	4f2e      	ldr	r7, [pc, #184]	; (8000a78 <main+0x300>)
 80009c0:	f8ba 1000 	ldrh.w	r1, [sl]
 80009c4:	bb10      	cbnz	r0, 8000a0c <main+0x294>
 80009c6:	f8b8 3000 	ldrh.w	r3, [r8]
 80009ca:	428b      	cmp	r3, r1
 80009cc:	d837      	bhi.n	8000a3e <main+0x2c6>
 80009ce:	f44f 727a 	mov.w	r2, #1000	; 0x3e8
 80009d2:	1ac9      	subs	r1, r1, r3
 80009d4:	428a      	cmp	r2, r1
 80009d6:	dc08      	bgt.n	80009ea <main+0x272>
 80009d8:	9b01      	ldr	r3, [sp, #4]
 80009da:	7023      	strb	r3, [r4, #0]
 80009dc:	f001 f910 	bl	8001c00 <getRTC>
 80009e0:	f44f 5100 	mov.w	r1, #8192	; 0x2000
 80009e4:	481a      	ldr	r0, [pc, #104]	; (8000a50 <main+0x2d8>)
 80009e6:	f001 ff81 	bl	80028ec <HAL_GPIO_TogglePin>
 80009ea:	f7ff fbaf 	bl	800014c <controlKey>
 80009ee:	f001 fb4f 	bl	8002090 <automaticTimeTranslation>
 80009f2:	f897 b000 	ldrb.w	fp, [r7]
 80009f6:	f1bb 0f00 	cmp.w	fp, #0
 80009fa:	d014      	beq.n	8000a26 <main+0x2ae>
 80009fc:	f7ff fe3c 	bl	8000678 <outputSettingsScreen>
 8000a00:	465e      	mov	r6, fp
 8000a02:	7820      	ldrb	r0, [r4, #0]
 8000a04:	f8ba 1000 	ldrh.w	r1, [sl]
 8000a08:	2800      	cmp	r0, #0
 8000a0a:	d0dc      	beq.n	80009c6 <main+0x24e>
 8000a0c:	2300      	movs	r3, #0
 8000a0e:	f8a8 1000 	strh.w	r1, [r8]
 8000a12:	7023      	strb	r3, [r4, #0]
 8000a14:	f7ff fb9a 	bl	800014c <controlKey>
 8000a18:	f001 fb3a 	bl	8002090 <automaticTimeTranslation>
 8000a1c:	f897 b000 	ldrb.w	fp, [r7]
 8000a20:	f1bb 0f00 	cmp.w	fp, #0
 8000a24:	d1ea      	bne.n	80009fc <main+0x284>
 8000a26:	4b13      	ldr	r3, [pc, #76]	; (8000a74 <main+0x2fc>)
 8000a28:	781d      	ldrb	r5, [r3, #0]
 8000a2a:	454d      	cmp	r5, r9
 8000a2c:	d100      	bne.n	8000a30 <main+0x2b8>
 8000a2e:	b10e      	cbz	r6, 8000a34 <main+0x2bc>
 8000a30:	f000 ffb4 	bl	800199c <resetTicker>
 8000a34:	f7ff fd8c 	bl	8000550 <outputMainScreen>
 8000a38:	46a9      	mov	r9, r5
 8000a3a:	465e      	mov	r6, fp
 8000a3c:	e7e1      	b.n	8000a02 <main+0x28a>
 8000a3e:	43da      	mvns	r2, r3
 8000a40:	f5c2 727a 	rsb	r2, r2, #1000	; 0x3e8
 8000a44:	4603      	mov	r3, r0
 8000a46:	b292      	uxth	r2, r2
 8000a48:	e7c3      	b.n	80009d2 <main+0x25a>
 8000a4a:	bf00      	nop
 8000a4c:	40021000 	.word	0x40021000
 8000a50:	40011000 	.word	0x40011000
 8000a54:	40010800 	.word	0x40010800
 8000a58:	40010c00 	.word	0x40010c00
 8000a5c:	200005b8 	.word	0x200005b8
 8000a60:	20000664 	.word	0x20000664
 8000a64:	200006a4 	.word	0x200006a4
 8000a68:	20000610 	.word	0x20000610
 8000a6c:	000186a0 	.word	0x000186a0
 8000a70:	20000002 	.word	0x20000002
 8000a74:	200005a6 	.word	0x200005a6
 8000a78:	20000044 	.word	0x20000044
 8000a7c:	40012c00 	.word	0x40012c00
 8000a80:	40003800 	.word	0x40003800
 8000a84:	40005800 	.word	0x40005800
 8000a88:	2000003e 	.word	0x2000003e
 8000a8c:	20000040 	.word	0x20000040

08000a90 <initTablo>:
 8000a90:	b510      	push	{r4, lr}
 8000a92:	4c0c      	ldr	r4, [pc, #48]	; (8000ac4 <initTablo+0x34>)
 8000a94:	2200      	movs	r2, #0
 8000a96:	4620      	mov	r0, r4
 8000a98:	2180      	movs	r1, #128	; 0x80
 8000a9a:	f001 ff23 	bl	80028e4 <HAL_GPIO_WritePin>
 8000a9e:	f241 3388 	movw	r3, #5000	; 0x1388
 8000aa2:	220f      	movs	r2, #15
 8000aa4:	4908      	ldr	r1, [pc, #32]	; (8000ac8 <initTablo+0x38>)
 8000aa6:	4809      	ldr	r0, [pc, #36]	; (8000acc <initTablo+0x3c>)
 8000aa8:	f003 fde2 	bl	8004670 <HAL_SPI_Transmit>
 8000aac:	4620      	mov	r0, r4
 8000aae:	2201      	movs	r2, #1
 8000ab0:	2180      	movs	r1, #128	; 0x80
 8000ab2:	f001 ff17 	bl	80028e4 <HAL_GPIO_WritePin>
 8000ab6:	4620      	mov	r0, r4
 8000ab8:	e8bd 4010 	ldmia.w	sp!, {r4, lr}
 8000abc:	2200      	movs	r2, #0
 8000abe:	2180      	movs	r1, #128	; 0x80
 8000ac0:	f001 bf10 	b.w	80028e4 <HAL_GPIO_WritePin>
 8000ac4:	40010c00 	.word	0x40010c00
 8000ac8:	20000588 	.word	0x20000588
 8000acc:	200005b8 	.word	0x200005b8

08000ad0 <showTablo>:
 8000ad0:	b570      	push	{r4, r5, r6, lr}
 8000ad2:	2201      	movs	r2, #1
 8000ad4:	f44f 411e 	mov.w	r1, #40448	; 0x9e00
 8000ad8:	4848      	ldr	r0, [pc, #288]	; (8000bfc <showTablo+0x12c>)
 8000ada:	4c49      	ldr	r4, [pc, #292]	; (8000c00 <showTablo+0x130>)
 8000adc:	f001 ff02 	bl	80028e4 <HAL_GPIO_WritePin>
 8000ae0:	2201      	movs	r2, #1
 8000ae2:	2158      	movs	r1, #88	; 0x58
 8000ae4:	4847      	ldr	r0, [pc, #284]	; (8000c04 <showTablo+0x134>)
 8000ae6:	f001 fefd 	bl	80028e4 <HAL_GPIO_WritePin>
 8000aea:	7822      	ldrb	r2, [r4, #0]
 8000aec:	4946      	ldr	r1, [pc, #280]	; (8000c08 <showTablo+0x138>)
 8000aee:	ebc2 1202 	rsb	r2, r2, r2, lsl #4
 8000af2:	188b      	adds	r3, r1, r2
 8000af4:	4845      	ldr	r0, [pc, #276]	; (8000c0c <showTablo+0x13c>)
 8000af6:	5c8d      	ldrb	r5, [r1, r2]
 8000af8:	785a      	ldrb	r2, [r3, #1]
 8000afa:	7899      	ldrb	r1, [r3, #2]
 8000afc:	7385      	strb	r5, [r0, #14]
 8000afe:	7342      	strb	r2, [r0, #13]
 8000b00:	78dd      	ldrb	r5, [r3, #3]
 8000b02:	791a      	ldrb	r2, [r3, #4]
 8000b04:	7301      	strb	r1, [r0, #12]
 8000b06:	72c5      	strb	r5, [r0, #11]
 8000b08:	7959      	ldrb	r1, [r3, #5]
 8000b0a:	799d      	ldrb	r5, [r3, #6]
 8000b0c:	7282      	strb	r2, [r0, #10]
 8000b0e:	79da      	ldrb	r2, [r3, #7]
 8000b10:	7241      	strb	r1, [r0, #9]
 8000b12:	7205      	strb	r5, [r0, #8]
 8000b14:	7a19      	ldrb	r1, [r3, #8]
 8000b16:	7a5d      	ldrb	r5, [r3, #9]
 8000b18:	71c2      	strb	r2, [r0, #7]
 8000b1a:	7a9a      	ldrb	r2, [r3, #10]
 8000b1c:	7181      	strb	r1, [r0, #6]
 8000b1e:	7145      	strb	r5, [r0, #5]
 8000b20:	7ad9      	ldrb	r1, [r3, #11]
 8000b22:	7b1e      	ldrb	r6, [r3, #12]
 8000b24:	7102      	strb	r2, [r0, #4]
 8000b26:	7b9d      	ldrb	r5, [r3, #14]
 8000b28:	7b5a      	ldrb	r2, [r3, #13]
 8000b2a:	70c1      	strb	r1, [r0, #3]
 8000b2c:	f241 3388 	movw	r3, #5000	; 0x1388
 8000b30:	4601      	mov	r1, r0
 8000b32:	7042      	strb	r2, [r0, #1]
 8000b34:	7086      	strb	r6, [r0, #2]
 8000b36:	220f      	movs	r2, #15
 8000b38:	7005      	strb	r5, [r0, #0]
 8000b3a:	4835      	ldr	r0, [pc, #212]	; (8000c10 <showTablo+0x140>)
 8000b3c:	f003 fd98 	bl	8004670 <HAL_SPI_Transmit>
 8000b40:	2201      	movs	r2, #1
 8000b42:	2180      	movs	r1, #128	; 0x80
 8000b44:	482f      	ldr	r0, [pc, #188]	; (8000c04 <showTablo+0x134>)
 8000b46:	f001 fecd 	bl	80028e4 <HAL_GPIO_WritePin>
 8000b4a:	2200      	movs	r2, #0
 8000b4c:	2180      	movs	r1, #128	; 0x80
 8000b4e:	482d      	ldr	r0, [pc, #180]	; (8000c04 <showTablo+0x134>)
 8000b50:	f001 fec8 	bl	80028e4 <HAL_GPIO_WritePin>
 8000b54:	7823      	ldrb	r3, [r4, #0]
 8000b56:	2b07      	cmp	r3, #7
 8000b58:	d80b      	bhi.n	8000b72 <showTablo+0xa2>
 8000b5a:	e8df f003 	tbb	[pc, r3]
 8000b5e:	2119      	.short	0x2119
 8000b60:	41393129 	.word	0x41393129
 8000b64:	0448      	.short	0x0448
 8000b66:	2200      	movs	r2, #0
 8000b68:	2140      	movs	r1, #64	; 0x40
 8000b6a:	4826      	ldr	r0, [pc, #152]	; (8000c04 <showTablo+0x134>)
 8000b6c:	f001 feba 	bl	80028e4 <HAL_GPIO_WritePin>
 8000b70:	7823      	ldrb	r3, [r4, #0]
 8000b72:	3301      	adds	r3, #1
 8000b74:	b2db      	uxtb	r3, r3
 8000b76:	2b07      	cmp	r3, #7
 8000b78:	d908      	bls.n	8000b8c <showTablo+0xbc>
 8000b7a:	2300      	movs	r3, #0
 8000b7c:	4a25      	ldr	r2, [pc, #148]	; (8000c14 <showTablo+0x144>)
 8000b7e:	7023      	strb	r3, [r4, #0]
 8000b80:	6813      	ldr	r3, [r2, #0]
 8000b82:	2b09      	cmp	r3, #9
 8000b84:	bfdc      	itt	le
 8000b86:	3301      	addle	r3, #1
 8000b88:	6013      	strle	r3, [r2, #0]
 8000b8a:	bd70      	pop	{r4, r5, r6, pc}
 8000b8c:	7023      	strb	r3, [r4, #0]
 8000b8e:	bd70      	pop	{r4, r5, r6, pc}
 8000b90:	2200      	movs	r2, #0
 8000b92:	f44f 7100 	mov.w	r1, #512	; 0x200
 8000b96:	4819      	ldr	r0, [pc, #100]	; (8000bfc <showTablo+0x12c>)
 8000b98:	f001 fea4 	bl	80028e4 <HAL_GPIO_WritePin>
 8000b9c:	7823      	ldrb	r3, [r4, #0]
 8000b9e:	e7e8      	b.n	8000b72 <showTablo+0xa2>
 8000ba0:	2200      	movs	r2, #0
 8000ba2:	f44f 6180 	mov.w	r1, #1024	; 0x400
 8000ba6:	4815      	ldr	r0, [pc, #84]	; (8000bfc <showTablo+0x12c>)
 8000ba8:	f001 fe9c 	bl	80028e4 <HAL_GPIO_WritePin>
 8000bac:	7823      	ldrb	r3, [r4, #0]
 8000bae:	e7e0      	b.n	8000b72 <showTablo+0xa2>
 8000bb0:	2200      	movs	r2, #0
 8000bb2:	f44f 6100 	mov.w	r1, #2048	; 0x800
 8000bb6:	4811      	ldr	r0, [pc, #68]	; (8000bfc <showTablo+0x12c>)
 8000bb8:	f001 fe94 	bl	80028e4 <HAL_GPIO_WritePin>
 8000bbc:	7823      	ldrb	r3, [r4, #0]
 8000bbe:	e7d8      	b.n	8000b72 <showTablo+0xa2>
 8000bc0:	2200      	movs	r2, #0
 8000bc2:	f44f 5180 	mov.w	r1, #4096	; 0x1000
 8000bc6:	480d      	ldr	r0, [pc, #52]	; (8000bfc <showTablo+0x12c>)
 8000bc8:	f001 fe8c 	bl	80028e4 <HAL_GPIO_WritePin>
 8000bcc:	7823      	ldrb	r3, [r4, #0]
 8000bce:	e7d0      	b.n	8000b72 <showTablo+0xa2>
 8000bd0:	2200      	movs	r2, #0
 8000bd2:	f44f 4100 	mov.w	r1, #32768	; 0x8000
 8000bd6:	4809      	ldr	r0, [pc, #36]	; (8000bfc <showTablo+0x12c>)
 8000bd8:	f001 fe84 	bl	80028e4 <HAL_GPIO_WritePin>
 8000bdc:	7823      	ldrb	r3, [r4, #0]
 8000bde:	e7c8      	b.n	8000b72 <showTablo+0xa2>
 8000be0:	2200      	movs	r2, #0
 8000be2:	2108      	movs	r1, #8
 8000be4:	4807      	ldr	r0, [pc, #28]	; (8000c04 <showTablo+0x134>)
 8000be6:	f001 fe7d 	bl	80028e4 <HAL_GPIO_WritePin>
 8000bea:	7823      	ldrb	r3, [r4, #0]
 8000bec:	e7c1      	b.n	8000b72 <showTablo+0xa2>
 8000bee:	2200      	movs	r2, #0
 8000bf0:	2110      	movs	r1, #16
 8000bf2:	4804      	ldr	r0, [pc, #16]	; (8000c04 <showTablo+0x134>)
 8000bf4:	f001 fe76 	bl	80028e4 <HAL_GPIO_WritePin>
 8000bf8:	7823      	ldrb	r3, [r4, #0]
 8000bfa:	e7ba      	b.n	8000b72 <showTablo+0xa2>
 8000bfc:	40010800 	.word	0x40010800
 8000c00:	200005a4 	.word	0x200005a4
 8000c04:	40010c00 	.word	0x40010c00
 8000c08:	20000048 	.word	0x20000048
 8000c0c:	20000588 	.word	0x20000588
 8000c10:	200005b8 	.word	0x200005b8
 8000c14:	200005a0 	.word	0x200005a0

08000c18 <showString>:
 8000c18:	780a      	ldrb	r2, [r1, #0]
 8000c1a:	2a00      	cmp	r2, #0
 8000c1c:	f000 8372 	beq.w	8001304 <showString+0x6ec>
 8000c20:	2300      	movs	r3, #0
 8000c22:	e92d 4ff0 	stmdb	sp!, {r4, r5, r6, r7, r8, r9, sl, fp, lr}
 8000c26:	4c98      	ldr	r4, [pc, #608]	; (8000e88 <showString+0x270>)
 8000c28:	b085      	sub	sp, #20
 8000c2a:	7824      	ldrb	r4, [r4, #0]
 8000c2c:	f8df b25c 	ldr.w	fp, [pc, #604]	; 8000e8c <showString+0x274>
 8000c30:	f8df 925c 	ldr.w	r9, [pc, #604]	; 8000e90 <showString+0x278>
 8000c34:	9402      	str	r4, [sp, #8]
 8000c36:	9101      	str	r1, [sp, #4]
 8000c38:	2acf      	cmp	r2, #207	; 0xcf
 8000c3a:	f200 80c9 	bhi.w	8000dd0 <showString+0x1b8>
 8000c3e:	3a20      	subs	r2, #32
 8000c40:	2a9f      	cmp	r2, #159	; 0x9f
 8000c42:	f200 833a 	bhi.w	80012ba <showString+0x6a2>
 8000c46:	e8df f012 	tbh	[pc, r2, lsl #1]
 8000c4a:	00cd      	.short	0x00cd
 8000c4c:	03380338 	.word	0x03380338
 8000c50:	03380338 	.word	0x03380338
 8000c54:	03380338 	.word	0x03380338
 8000c58:	03380338 	.word	0x03380338
 8000c5c:	03380338 	.word	0x03380338
 8000c60:	00e300d8 	.word	0x00e300d8
 8000c64:	00f900ee 	.word	0x00f900ee
 8000c68:	01040338 	.word	0x01040338
 8000c6c:	01250111 	.word	0x01250111
 8000c70:	01400134 	.word	0x01400134
 8000c74:	015c014e 	.word	0x015c014e
 8000c78:	0179016b 	.word	0x0179016b
 8000c7c:	01920184 	.word	0x01920184
 8000c80:	01a8019d 	.word	0x01a8019d
 8000c84:	01b40338 	.word	0x01b40338
 8000c88:	01bf0338 	.word	0x01bf0338
 8000c8c:	03380338 	.word	0x03380338
 8000c90:	03380338 	.word	0x03380338
 8000c94:	03380338 	.word	0x03380338
 8000c98:	03380338 	.word	0x03380338
 8000c9c:	03380338 	.word	0x03380338
 8000ca0:	03380338 	.word	0x03380338
 8000ca4:	03380338 	.word	0x03380338
 8000ca8:	03380338 	.word	0x03380338
 8000cac:	03380338 	.word	0x03380338
 8000cb0:	03380338 	.word	0x03380338
 8000cb4:	03380338 	.word	0x03380338
 8000cb8:	03380338 	.word	0x03380338
 8000cbc:	03380338 	.word	0x03380338
 8000cc0:	03380338 	.word	0x03380338
 8000cc4:	03380338 	.word	0x03380338
 8000cc8:	03380338 	.word	0x03380338
 8000ccc:	03380338 	.word	0x03380338
 8000cd0:	03380338 	.word	0x03380338
 8000cd4:	03380338 	.word	0x03380338
 8000cd8:	03380338 	.word	0x03380338
 8000cdc:	03380338 	.word	0x03380338
 8000ce0:	03380338 	.word	0x03380338
 8000ce4:	03380338 	.word	0x03380338
 8000ce8:	03380338 	.word	0x03380338
 8000cec:	03380338 	.word	0x03380338
 8000cf0:	03380338 	.word	0x03380338
 8000cf4:	03380338 	.word	0x03380338
 8000cf8:	03380338 	.word	0x03380338
 8000cfc:	03380338 	.word	0x03380338
 8000d00:	03380338 	.word	0x03380338
 8000d04:	03380338 	.word	0x03380338
 8000d08:	01cc0338 	.word	0x01cc0338
 8000d0c:	01e301d8 	.word	0x01e301d8
 8000d10:	01fb01ef 	.word	0x01fb01ef
 8000d14:	02130207 	.word	0x02130207
 8000d18:	022c021f 	.word	0x022c021f
 8000d1c:	03380237 	.word	0x03380237
 8000d20:	024f0243 	.word	0x024f0243
 8000d24:	0267025b 	.word	0x0267025b
 8000d28:	027e0273 	.word	0x027e0273
 8000d2c:	0297028b 	.word	0x0297028b
 8000d30:	02ae02a2 	.word	0x02ae02a2
 8000d34:	02c702bb 	.word	0x02c702bb
 8000d38:	02de02d2 	.word	0x02de02d2
 8000d3c:	02f902eb 	.word	0x02f902eb
 8000d40:	03130305 	.word	0x03130305
 8000d44:	032d0321 	.word	0x032d0321
 8000d48:	01cc00a0 	.word	0x01cc00a0
 8000d4c:	01e301d8 	.word	0x01e301d8
 8000d50:	01fb01ef 	.word	0x01fb01ef
 8000d54:	02130207 	.word	0x02130207
 8000d58:	022c021f 	.word	0x022c021f
 8000d5c:	03380237 	.word	0x03380237
 8000d60:	024f0243 	.word	0x024f0243
 8000d64:	0267025b 	.word	0x0267025b
 8000d68:	027e0273 	.word	0x027e0273
 8000d6c:	0297028b 	.word	0x0297028b
 8000d70:	02ae02a2 	.word	0x02ae02a2
 8000d74:	02c702bb 	.word	0x02c702bb
 8000d78:	02de02d2 	.word	0x02de02d2
 8000d7c:	02f902eb 	.word	0x02f902eb
 8000d80:	03130305 	.word	0x03130305
 8000d84:	032d0321 	.word	0x032d0321
 8000d88:	00a0      	.short	0x00a0
 8000d8a:	2466      	movs	r4, #102	; 0x66
 8000d8c:	220f      	movs	r2, #15
 8000d8e:	2600      	movs	r6, #0
 8000d90:	4625      	mov	r5, r4
 8000d92:	4627      	mov	r7, r4
 8000d94:	46a4      	mov	ip, r4
 8000d96:	46a6      	mov	lr, r4
 8000d98:	46a0      	mov	r8, r4
 8000d9a:	f04f 0a7e 	mov.w	sl, #126	; 0x7e
 8000d9e:	9203      	str	r2, [sp, #12]
 8000da0:	9a02      	ldr	r2, [sp, #8]
 8000da2:	2a00      	cmp	r2, #0
 8000da4:	f040 829b 	bne.w	80012de <showString+0x6c6>
 8000da8:	eb09 0200 	add.w	r2, r9, r0
 8000dac:	f809 a000 	strb.w	sl, [r9, r0]
 8000db0:	f882 800f 	strb.w	r8, [r2, #15]
 8000db4:	f882 e01e 	strb.w	lr, [r2, #30]
 8000db8:	f882 c02d 	strb.w	ip, [r2, #45]	; 0x2d
 8000dbc:	f882 703c 	strb.w	r7, [r2, #60]	; 0x3c
 8000dc0:	f882 504b 	strb.w	r5, [r2, #75]	; 0x4b
 8000dc4:	f882 405a 	strb.w	r4, [r2, #90]	; 0x5a
 8000dc8:	f882 6069 	strb.w	r6, [r2, #105]	; 0x69
 8000dcc:	3003      	adds	r0, #3
 8000dce:	b2c0      	uxtb	r0, r0
 8000dd0:	3301      	adds	r3, #1
 8000dd2:	9a01      	ldr	r2, [sp, #4]
 8000dd4:	b2db      	uxtb	r3, r3
 8000dd6:	5cd2      	ldrb	r2, [r2, r3]
 8000dd8:	2a00      	cmp	r2, #0
 8000dda:	f47f af2d 	bne.w	8000c38 <showString+0x20>
 8000dde:	b005      	add	sp, #20
 8000de0:	e8bd 8ff0 	ldmia.w	sp!, {r4, r5, r6, r7, r8, r9, sl, fp, pc}
 8000de4:	2600      	movs	r6, #0
 8000de6:	2232      	movs	r2, #50	; 0x32
 8000de8:	4634      	mov	r4, r6
 8000dea:	9203      	str	r2, [sp, #12]
 8000dec:	4635      	mov	r5, r6
 8000dee:	4637      	mov	r7, r6
 8000df0:	46b4      	mov	ip, r6
 8000df2:	46b6      	mov	lr, r6
 8000df4:	46b0      	mov	r8, r6
 8000df6:	46b2      	mov	sl, r6
 8000df8:	e7d2      	b.n	8000da0 <showString+0x188>
 8000dfa:	2418      	movs	r4, #24
 8000dfc:	2600      	movs	r6, #0
 8000dfe:	277e      	movs	r7, #126	; 0x7e
 8000e00:	222d      	movs	r2, #45	; 0x2d
 8000e02:	46b2      	mov	sl, r6
 8000e04:	4625      	mov	r5, r4
 8000e06:	46a6      	mov	lr, r4
 8000e08:	46a0      	mov	r8, r4
 8000e0a:	46bc      	mov	ip, r7
 8000e0c:	9203      	str	r2, [sp, #12]
 8000e0e:	e7c7      	b.n	8000da0 <showString+0x188>
 8000e10:	2600      	movs	r6, #0
 8000e12:	2518      	movs	r5, #24
 8000e14:	222b      	movs	r2, #43	; 0x2b
 8000e16:	46b4      	mov	ip, r6
 8000e18:	46b6      	mov	lr, r6
 8000e1a:	46b0      	mov	r8, r6
 8000e1c:	46b2      	mov	sl, r6
 8000e1e:	462f      	mov	r7, r5
 8000e20:	2430      	movs	r4, #48	; 0x30
 8000e22:	9203      	str	r2, [sp, #12]
 8000e24:	e7bc      	b.n	8000da0 <showString+0x188>
 8000e26:	2600      	movs	r6, #0
 8000e28:	277e      	movs	r7, #126	; 0x7e
 8000e2a:	222e      	movs	r2, #46	; 0x2e
 8000e2c:	4634      	mov	r4, r6
 8000e2e:	4635      	mov	r5, r6
 8000e30:	46b6      	mov	lr, r6
 8000e32:	46b0      	mov	r8, r6
 8000e34:	46b2      	mov	sl, r6
 8000e36:	46bc      	mov	ip, r7
 8000e38:	9203      	str	r2, [sp, #12]
 8000e3a:	e7b1      	b.n	8000da0 <showString+0x188>
 8000e3c:	2600      	movs	r6, #0
 8000e3e:	2418      	movs	r4, #24
 8000e40:	222c      	movs	r2, #44	; 0x2c
 8000e42:	4637      	mov	r7, r6
 8000e44:	46b4      	mov	ip, r6
 8000e46:	46b6      	mov	lr, r6
 8000e48:	46b0      	mov	r8, r6
 8000e4a:	46b2      	mov	sl, r6
 8000e4c:	4625      	mov	r5, r4
 8000e4e:	9203      	str	r2, [sp, #12]
 8000e50:	e7a6      	b.n	8000da0 <showString+0x188>
 8000e52:	2438      	movs	r4, #56	; 0x38
 8000e54:	2544      	movs	r5, #68	; 0x44
 8000e56:	221f      	movs	r2, #31
 8000e58:	46a2      	mov	sl, r4
 8000e5a:	46a8      	mov	r8, r5
 8000e5c:	2600      	movs	r6, #0
 8000e5e:	2764      	movs	r7, #100	; 0x64
 8000e60:	f04f 0c54 	mov.w	ip, #84	; 0x54
 8000e64:	f04f 0e4c 	mov.w	lr, #76	; 0x4c
 8000e68:	9203      	str	r2, [sp, #12]
 8000e6a:	e799      	b.n	8000da0 <showString+0x188>
 8000e6c:	240c      	movs	r4, #12
 8000e6e:	2220      	movs	r2, #32
 8000e70:	2600      	movs	r6, #0
 8000e72:	4625      	mov	r5, r4
 8000e74:	4627      	mov	r7, r4
 8000e76:	46a4      	mov	ip, r4
 8000e78:	46a2      	mov	sl, r4
 8000e7a:	f04f 0e3c 	mov.w	lr, #60	; 0x3c
 8000e7e:	f04f 081c 	mov.w	r8, #28
 8000e82:	9203      	str	r2, [sp, #12]
 8000e84:	e78c      	b.n	8000da0 <showString+0x188>
 8000e86:	bf00      	nop
 8000e88:	20000599 	.word	0x20000599
 8000e8c:	200000c0 	.word	0x200000c0
 8000e90:	20000048 	.word	0x20000048
 8000e94:	2221      	movs	r2, #33	; 0x21
 8000e96:	2600      	movs	r6, #0
 8000e98:	247e      	movs	r4, #126	; 0x7e
 8000e9a:	2560      	movs	r5, #96	; 0x60
 8000e9c:	2730      	movs	r7, #48	; 0x30
 8000e9e:	f04f 0c1c 	mov.w	ip, #28
 8000ea2:	f04f 0e06 	mov.w	lr, #6
 8000ea6:	f04f 0866 	mov.w	r8, #102	; 0x66
 8000eaa:	f04f 0a3c 	mov.w	sl, #60	; 0x3c
 8000eae:	9203      	str	r2, [sp, #12]
 8000eb0:	e776      	b.n	8000da0 <showString+0x188>
 8000eb2:	243c      	movs	r4, #60	; 0x3c
 8000eb4:	2566      	movs	r5, #102	; 0x66
 8000eb6:	2706      	movs	r7, #6
 8000eb8:	2222      	movs	r2, #34	; 0x22
 8000eba:	46a2      	mov	sl, r4
 8000ebc:	46a8      	mov	r8, r5
 8000ebe:	46be      	mov	lr, r7
 8000ec0:	2600      	movs	r6, #0
 8000ec2:	f04f 0c1c 	mov.w	ip, #28
 8000ec6:	9203      	str	r2, [sp, #12]
 8000ec8:	e76a      	b.n	8000da0 <showString+0x188>
 8000eca:	240c      	movs	r4, #12
 8000ecc:	2223      	movs	r2, #35	; 0x23
 8000ece:	2600      	movs	r6, #0
 8000ed0:	4625      	mov	r5, r4
 8000ed2:	46a2      	mov	sl, r4
 8000ed4:	277e      	movs	r7, #126	; 0x7e
 8000ed6:	f04f 0c6c 	mov.w	ip, #108	; 0x6c
 8000eda:	f04f 0e2c 	mov.w	lr, #44	; 0x2c
 8000ede:	f04f 081c 	mov.w	r8, #28
 8000ee2:	9203      	str	r2, [sp, #12]
 8000ee4:	e75c      	b.n	8000da0 <showString+0x188>
 8000ee6:	2706      	movs	r7, #6
 8000ee8:	2224      	movs	r2, #36	; 0x24
 8000eea:	2600      	movs	r6, #0
 8000eec:	46bc      	mov	ip, r7
 8000eee:	243c      	movs	r4, #60	; 0x3c
 8000ef0:	2566      	movs	r5, #102	; 0x66
 8000ef2:	f04f 0e7c 	mov.w	lr, #124	; 0x7c
 8000ef6:	f04f 0860 	mov.w	r8, #96	; 0x60
 8000efa:	f04f 0a7e 	mov.w	sl, #126	; 0x7e
 8000efe:	9203      	str	r2, [sp, #12]
 8000f00:	e74e      	b.n	8000da0 <showString+0x188>
 8000f02:	2566      	movs	r5, #102	; 0x66
 8000f04:	2225      	movs	r2, #37	; 0x25
 8000f06:	2600      	movs	r6, #0
 8000f08:	462f      	mov	r7, r5
 8000f0a:	243c      	movs	r4, #60	; 0x3c
 8000f0c:	f04f 0c7c 	mov.w	ip, #124	; 0x7c
 8000f10:	f04f 0e60 	mov.w	lr, #96	; 0x60
 8000f14:	f04f 0830 	mov.w	r8, #48	; 0x30
 8000f18:	f04f 0a1c 	mov.w	sl, #28
 8000f1c:	9203      	str	r2, [sp, #12]
 8000f1e:	e73f      	b.n	8000da0 <showString+0x188>
 8000f20:	2418      	movs	r4, #24
 8000f22:	f04f 0e06 	mov.w	lr, #6
 8000f26:	2226      	movs	r2, #38	; 0x26
 8000f28:	4625      	mov	r5, r4
 8000f2a:	4627      	mov	r7, r4
 8000f2c:	46f0      	mov	r8, lr
 8000f2e:	2600      	movs	r6, #0
 8000f30:	f04f 0c0c 	mov.w	ip, #12
 8000f34:	f04f 0a7e 	mov.w	sl, #126	; 0x7e
 8000f38:	9203      	str	r2, [sp, #12]
 8000f3a:	e731      	b.n	8000da0 <showString+0x188>
 8000f3c:	2566      	movs	r5, #102	; 0x66
 8000f3e:	243c      	movs	r4, #60	; 0x3c
 8000f40:	2227      	movs	r2, #39	; 0x27
 8000f42:	46a4      	mov	ip, r4
 8000f44:	46a2      	mov	sl, r4
 8000f46:	462f      	mov	r7, r5
 8000f48:	46ae      	mov	lr, r5
 8000f4a:	46a8      	mov	r8, r5
 8000f4c:	2600      	movs	r6, #0
 8000f4e:	9203      	str	r2, [sp, #12]
 8000f50:	e726      	b.n	8000da0 <showString+0x188>
 8000f52:	f04f 0e66 	mov.w	lr, #102	; 0x66
 8000f56:	2228      	movs	r2, #40	; 0x28
 8000f58:	2600      	movs	r6, #0
 8000f5a:	46f0      	mov	r8, lr
 8000f5c:	2438      	movs	r4, #56	; 0x38
 8000f5e:	250c      	movs	r5, #12
 8000f60:	2706      	movs	r7, #6
 8000f62:	f04f 0c3e 	mov.w	ip, #62	; 0x3e
 8000f66:	f04f 0a3c 	mov.w	sl, #60	; 0x3c
 8000f6a:	9203      	str	r2, [sp, #12]
 8000f6c:	e718      	b.n	8000da0 <showString+0x188>
 8000f6e:	2600      	movs	r6, #0
 8000f70:	2418      	movs	r4, #24
 8000f72:	2229      	movs	r2, #41	; 0x29
 8000f74:	4637      	mov	r7, r6
 8000f76:	46b4      	mov	ip, r6
 8000f78:	46b2      	mov	sl, r6
 8000f7a:	4625      	mov	r5, r4
 8000f7c:	46a6      	mov	lr, r4
 8000f7e:	46a0      	mov	r8, r4
 8000f80:	9203      	str	r2, [sp, #12]
 8000f82:	e70d      	b.n	8000da0 <showString+0x188>
 8000f84:	2518      	movs	r5, #24
 8000f86:	2600      	movs	r6, #0
 8000f88:	222a      	movs	r2, #42	; 0x2a
 8000f8a:	46b4      	mov	ip, r6
 8000f8c:	46b2      	mov	sl, r6
 8000f8e:	462f      	mov	r7, r5
 8000f90:	46ae      	mov	lr, r5
 8000f92:	46a8      	mov	r8, r5
 8000f94:	2430      	movs	r4, #48	; 0x30
 8000f96:	9203      	str	r2, [sp, #12]
 8000f98:	e702      	b.n	8000da0 <showString+0x188>
 8000f9a:	240c      	movs	r4, #12
 8000f9c:	2518      	movs	r5, #24
 8000f9e:	2730      	movs	r7, #48	; 0x30
 8000fa0:	2231      	movs	r2, #49	; 0x31
 8000fa2:	46a2      	mov	sl, r4
 8000fa4:	46a8      	mov	r8, r5
 8000fa6:	46be      	mov	lr, r7
 8000fa8:	2600      	movs	r6, #0
 8000faa:	f04f 0c60 	mov.w	ip, #96	; 0x60
 8000fae:	9203      	str	r2, [sp, #12]
 8000fb0:	e6f6      	b.n	8000da0 <showString+0x188>
 8000fb2:	2530      	movs	r5, #48	; 0x30
 8000fb4:	2460      	movs	r4, #96	; 0x60
 8000fb6:	2718      	movs	r7, #24
 8000fb8:	46a2      	mov	sl, r4
 8000fba:	46a8      	mov	r8, r5
 8000fbc:	9503      	str	r5, [sp, #12]
 8000fbe:	46be      	mov	lr, r7
 8000fc0:	2600      	movs	r6, #0
 8000fc2:	f04f 0c0c 	mov.w	ip, #12
 8000fc6:	e6eb      	b.n	8000da0 <showString+0x188>
 8000fc8:	2600      	movs	r6, #0
 8000fca:	f04f 0c1c 	mov.w	ip, #28
 8000fce:	f04f 0e36 	mov.w	lr, #54	; 0x36
 8000fd2:	222f      	movs	r2, #47	; 0x2f
 8000fd4:	4634      	mov	r4, r6
 8000fd6:	4635      	mov	r5, r6
 8000fd8:	4637      	mov	r7, r6
 8000fda:	46e2      	mov	sl, ip
 8000fdc:	46f0      	mov	r8, lr
 8000fde:	9203      	str	r2, [sp, #12]
 8000fe0:	e6de      	b.n	8000da0 <showString+0x188>
 8000fe2:	f04f 0c66 	mov.w	ip, #102	; 0x66
 8000fe6:	2460      	movs	r4, #96	; 0x60
 8000fe8:	277c      	movs	r7, #124	; 0x7c
 8000fea:	2210      	movs	r2, #16
 8000fec:	4625      	mov	r5, r4
 8000fee:	46ba      	mov	sl, r7
 8000ff0:	46e6      	mov	lr, ip
 8000ff2:	46e0      	mov	r8, ip
 8000ff4:	2600      	movs	r6, #0
 8000ff6:	9203      	str	r2, [sp, #12]
 8000ff8:	e6d2      	b.n	8000da0 <showString+0x188>
 8000ffa:	2760      	movs	r7, #96	; 0x60
 8000ffc:	243c      	movs	r4, #60	; 0x3c
 8000ffe:	2566      	movs	r5, #102	; 0x66
 8001000:	2211      	movs	r2, #17
 8001002:	46a2      	mov	sl, r4
 8001004:	46a8      	mov	r8, r5
 8001006:	46bc      	mov	ip, r7
 8001008:	46be      	mov	lr, r7
 800100a:	2600      	movs	r6, #0
 800100c:	9203      	str	r2, [sp, #12]
 800100e:	e6c7      	b.n	8000da0 <showString+0x188>
 8001010:	2418      	movs	r4, #24
 8001012:	2212      	movs	r2, #18
 8001014:	2600      	movs	r6, #0
 8001016:	4625      	mov	r5, r4
 8001018:	4627      	mov	r7, r4
 800101a:	46a4      	mov	ip, r4
 800101c:	46a6      	mov	lr, r4
 800101e:	46a0      	mov	r8, r4
 8001020:	f04f 0a7e 	mov.w	sl, #126	; 0x7e
 8001024:	9203      	str	r2, [sp, #12]
 8001026:	e6bb      	b.n	8000da0 <showString+0x188>
 8001028:	2566      	movs	r5, #102	; 0x66
 800102a:	2213      	movs	r2, #19
 800102c:	2600      	movs	r6, #0
 800102e:	46ae      	mov	lr, r5
 8001030:	46a8      	mov	r8, r5
 8001032:	46aa      	mov	sl, r5
 8001034:	243c      	movs	r4, #60	; 0x3c
 8001036:	2706      	movs	r7, #6
 8001038:	f04f 0c3e 	mov.w	ip, #62	; 0x3e
 800103c:	9203      	str	r2, [sp, #12]
 800103e:	e6af      	b.n	8000da0 <showString+0x188>
 8001040:	f04f 0c5a 	mov.w	ip, #90	; 0x5a
 8001044:	2418      	movs	r4, #24
 8001046:	273c      	movs	r7, #60	; 0x3c
 8001048:	2214      	movs	r2, #20
 800104a:	4625      	mov	r5, r4
 800104c:	46ba      	mov	sl, r7
 800104e:	46e6      	mov	lr, ip
 8001050:	46e0      	mov	r8, ip
 8001052:	2600      	movs	r6, #0
 8001054:	9203      	str	r2, [sp, #12]
 8001056:	e6a3      	b.n	8000da0 <showString+0x188>
 8001058:	2466      	movs	r4, #102	; 0x66
 800105a:	273c      	movs	r7, #60	; 0x3c
 800105c:	2215      	movs	r2, #21
 800105e:	4625      	mov	r5, r4
 8001060:	46a0      	mov	r8, r4
 8001062:	46a2      	mov	sl, r4
 8001064:	46be      	mov	lr, r7
 8001066:	2600      	movs	r6, #0
 8001068:	f04f 0c18 	mov.w	ip, #24
 800106c:	9203      	str	r2, [sp, #12]
 800106e:	e697      	b.n	8000da0 <showString+0x188>
 8001070:	f04f 0c6c 	mov.w	ip, #108	; 0x6c
 8001074:	2216      	movs	r2, #22
 8001076:	2600      	movs	r6, #0
 8001078:	46e6      	mov	lr, ip
 800107a:	46e0      	mov	r8, ip
 800107c:	46e2      	mov	sl, ip
 800107e:	2406      	movs	r4, #6
 8001080:	257e      	movs	r5, #126	; 0x7e
 8001082:	277c      	movs	r7, #124	; 0x7c
 8001084:	9203      	str	r2, [sp, #12]
 8001086:	e68b      	b.n	8000da0 <showString+0x188>
 8001088:	2406      	movs	r4, #6
 800108a:	f04f 0e66 	mov.w	lr, #102	; 0x66
 800108e:	2217      	movs	r2, #23
 8001090:	4625      	mov	r5, r4
 8001092:	4627      	mov	r7, r4
 8001094:	46f0      	mov	r8, lr
 8001096:	46f2      	mov	sl, lr
 8001098:	2600      	movs	r6, #0
 800109a:	f04f 0c3e 	mov.w	ip, #62	; 0x3e
 800109e:	9203      	str	r2, [sp, #12]
 80010a0:	e67e      	b.n	8000da0 <showString+0x188>
 80010a2:	275a      	movs	r7, #90	; 0x5a
 80010a4:	247e      	movs	r4, #126	; 0x7e
 80010a6:	2218      	movs	r2, #24
 80010a8:	4625      	mov	r5, r4
 80010aa:	46bc      	mov	ip, r7
 80010ac:	46be      	mov	lr, r7
 80010ae:	46b8      	mov	r8, r7
 80010b0:	46ba      	mov	sl, r7
 80010b2:	2600      	movs	r6, #0
 80010b4:	9203      	str	r2, [sp, #12]
 80010b6:	e673      	b.n	8000da0 <showString+0x188>
 80010b8:	f04f 0c5a 	mov.w	ip, #90	; 0x5a
 80010bc:	257e      	movs	r5, #126	; 0x7e
 80010be:	2219      	movs	r2, #25
 80010c0:	462f      	mov	r7, r5
 80010c2:	46e6      	mov	lr, ip
 80010c4:	46e0      	mov	r8, ip
 80010c6:	46e2      	mov	sl, ip
 80010c8:	2600      	movs	r6, #0
 80010ca:	2460      	movs	r4, #96	; 0x60
 80010cc:	9203      	str	r2, [sp, #12]
 80010ce:	e667      	b.n	8000da0 <showString+0x188>
 80010d0:	f04f 0e62 	mov.w	lr, #98	; 0x62
 80010d4:	247a      	movs	r4, #122	; 0x7a
 80010d6:	2566      	movs	r5, #102	; 0x66
 80010d8:	221a      	movs	r2, #26
 80010da:	46a4      	mov	ip, r4
 80010dc:	462f      	mov	r7, r5
 80010de:	46f0      	mov	r8, lr
 80010e0:	46f2      	mov	sl, lr
 80010e2:	2600      	movs	r6, #0
 80010e4:	9203      	str	r2, [sp, #12]
 80010e6:	e65b      	b.n	8000da0 <showString+0x188>
 80010e8:	f04f 0e60 	mov.w	lr, #96	; 0x60
 80010ec:	247c      	movs	r4, #124	; 0x7c
 80010ee:	2566      	movs	r5, #102	; 0x66
 80010f0:	221b      	movs	r2, #27
 80010f2:	46a4      	mov	ip, r4
 80010f4:	462f      	mov	r7, r5
 80010f6:	46f0      	mov	r8, lr
 80010f8:	46f2      	mov	sl, lr
 80010fa:	2600      	movs	r6, #0
 80010fc:	9203      	str	r2, [sp, #12]
 80010fe:	e64f      	b.n	8000da0 <showString+0x188>
 8001100:	2438      	movs	r4, #56	; 0x38
 8001102:	254c      	movs	r5, #76	; 0x4c
 8001104:	2706      	movs	r7, #6
 8001106:	221c      	movs	r2, #28
 8001108:	46a2      	mov	sl, r4
 800110a:	46a8      	mov	r8, r5
 800110c:	46be      	mov	lr, r7
 800110e:	2600      	movs	r6, #0
 8001110:	f04f 0c3e 	mov.w	ip, #62	; 0x3e
 8001114:	9203      	str	r2, [sp, #12]
 8001116:	e643      	b.n	8000da0 <showString+0x188>
 8001118:	255a      	movs	r5, #90	; 0x5a
 800111a:	244e      	movs	r4, #78	; 0x4e
 800111c:	221d      	movs	r2, #29
 800111e:	46a2      	mov	sl, r4
 8001120:	462f      	mov	r7, r5
 8001122:	46ae      	mov	lr, r5
 8001124:	46a8      	mov	r8, r5
 8001126:	2600      	movs	r6, #0
 8001128:	f04f 0c7a 	mov.w	ip, #122	; 0x7a
 800112c:	9203      	str	r2, [sp, #12]
 800112e:	e637      	b.n	8000da0 <showString+0x188>
 8001130:	2466      	movs	r4, #102	; 0x66
 8001132:	273e      	movs	r7, #62	; 0x3e
 8001134:	221e      	movs	r2, #30
 8001136:	46a4      	mov	ip, r4
 8001138:	46a6      	mov	lr, r4
 800113a:	46a0      	mov	r8, r4
 800113c:	46ba      	mov	sl, r7
 800113e:	2600      	movs	r6, #0
 8001140:	2536      	movs	r5, #54	; 0x36
 8001142:	9203      	str	r2, [sp, #12]
 8001144:	e62c      	b.n	8000da0 <showString+0x188>
 8001146:	2466      	movs	r4, #102	; 0x66
 8001148:	2600      	movs	r6, #0
 800114a:	4625      	mov	r5, r4
 800114c:	9603      	str	r6, [sp, #12]
 800114e:	46a4      	mov	ip, r4
 8001150:	277e      	movs	r7, #126	; 0x7e
 8001152:	f04f 0e36 	mov.w	lr, #54	; 0x36
 8001156:	f04f 081e 	mov.w	r8, #30
 800115a:	f04f 0a0e 	mov.w	sl, #14
 800115e:	e61f      	b.n	8000da0 <showString+0x188>
 8001160:	247c      	movs	r4, #124	; 0x7c
 8001162:	2566      	movs	r5, #102	; 0x66
 8001164:	f04f 0e60 	mov.w	lr, #96	; 0x60
 8001168:	2201      	movs	r2, #1
 800116a:	46a4      	mov	ip, r4
 800116c:	46a2      	mov	sl, r4
 800116e:	462f      	mov	r7, r5
 8001170:	46f0      	mov	r8, lr
 8001172:	2600      	movs	r6, #0
 8001174:	9203      	str	r2, [sp, #12]
 8001176:	e613      	b.n	8000da0 <showString+0x188>
 8001178:	2566      	movs	r5, #102	; 0x66
 800117a:	247c      	movs	r4, #124	; 0x7c
 800117c:	2202      	movs	r2, #2
 800117e:	46a4      	mov	ip, r4
 8001180:	46a2      	mov	sl, r4
 8001182:	462f      	mov	r7, r5
 8001184:	46ae      	mov	lr, r5
 8001186:	46a8      	mov	r8, r5
 8001188:	2600      	movs	r6, #0
 800118a:	9203      	str	r2, [sp, #12]
 800118c:	e608      	b.n	8000da0 <showString+0x188>
 800118e:	2460      	movs	r4, #96	; 0x60
 8001190:	2203      	movs	r2, #3
 8001192:	2600      	movs	r6, #0
 8001194:	4625      	mov	r5, r4
 8001196:	4627      	mov	r7, r4
 8001198:	46a4      	mov	ip, r4
 800119a:	46a6      	mov	lr, r4
 800119c:	46a0      	mov	r8, r4
 800119e:	f04f 0a7e 	mov.w	sl, #126	; 0x7e
 80011a2:	9203      	str	r2, [sp, #12]
 80011a4:	e5fc      	b.n	8000da0 <showString+0x188>
 80011a6:	272c      	movs	r7, #44	; 0x2c
 80011a8:	2204      	movs	r2, #4
 80011aa:	2600      	movs	r6, #0
 80011ac:	46bc      	mov	ip, r7
 80011ae:	46be      	mov	lr, r7
 80011b0:	2466      	movs	r4, #102	; 0x66
 80011b2:	257e      	movs	r5, #126	; 0x7e
 80011b4:	f04f 083c 	mov.w	r8, #60	; 0x3c
 80011b8:	f04f 0a1c 	mov.w	sl, #28
 80011bc:	9203      	str	r2, [sp, #12]
 80011be:	e5ef      	b.n	8000da0 <showString+0x188>
 80011c0:	2560      	movs	r5, #96	; 0x60
 80011c2:	247e      	movs	r4, #126	; 0x7e
 80011c4:	2205      	movs	r2, #5
 80011c6:	46a2      	mov	sl, r4
 80011c8:	462f      	mov	r7, r5
 80011ca:	46ae      	mov	lr, r5
 80011cc:	46a8      	mov	r8, r5
 80011ce:	2600      	movs	r6, #0
 80011d0:	f04f 0c7c 	mov.w	ip, #124	; 0x7c
 80011d4:	9203      	str	r2, [sp, #12]
 80011d6:	e5e3      	b.n	8000da0 <showString+0x188>
 80011d8:	245a      	movs	r4, #90	; 0x5a
 80011da:	273c      	movs	r7, #60	; 0x3c
 80011dc:	2206      	movs	r2, #6
 80011de:	4625      	mov	r5, r4
 80011e0:	46a0      	mov	r8, r4
 80011e2:	46a2      	mov	sl, r4
 80011e4:	46bc      	mov	ip, r7
 80011e6:	46be      	mov	lr, r7
 80011e8:	2600      	movs	r6, #0
 80011ea:	9203      	str	r2, [sp, #12]
 80011ec:	e5d8      	b.n	8000da0 <showString+0x188>
 80011ee:	243c      	movs	r4, #60	; 0x3c
 80011f0:	2566      	movs	r5, #102	; 0x66
 80011f2:	2760      	movs	r7, #96	; 0x60
 80011f4:	2207      	movs	r2, #7
 80011f6:	46a2      	mov	sl, r4
 80011f8:	46a8      	mov	r8, r5
 80011fa:	46be      	mov	lr, r7
 80011fc:	2600      	movs	r6, #0
 80011fe:	f04f 0c1c 	mov.w	ip, #28
 8001202:	9203      	str	r2, [sp, #12]
 8001204:	e5cc      	b.n	8000da0 <showString+0x188>
 8001206:	2466      	movs	r4, #102	; 0x66
 8001208:	2208      	movs	r2, #8
 800120a:	2600      	movs	r6, #0
 800120c:	4625      	mov	r5, r4
 800120e:	46a0      	mov	r8, r4
 8001210:	46a2      	mov	sl, r4
 8001212:	2776      	movs	r7, #118	; 0x76
 8001214:	f04f 0c7e 	mov.w	ip, #126	; 0x7e
 8001218:	f04f 0e6e 	mov.w	lr, #110	; 0x6e
 800121c:	9203      	str	r2, [sp, #12]
 800121e:	e5bf      	b.n	8000da0 <showString+0x188>
 8001220:	2466      	movs	r4, #102	; 0x66
 8001222:	2209      	movs	r2, #9
 8001224:	2600      	movs	r6, #0
 8001226:	4625      	mov	r5, r4
 8001228:	46a0      	mov	r8, r4
 800122a:	2776      	movs	r7, #118	; 0x76
 800122c:	f04f 0c7e 	mov.w	ip, #126	; 0x7e
 8001230:	f04f 0e6e 	mov.w	lr, #110	; 0x6e
 8001234:	f04f 0a18 	mov.w	sl, #24
 8001238:	9203      	str	r2, [sp, #12]
 800123a:	e5b1      	b.n	8000da0 <showString+0x188>
 800123c:	2466      	movs	r4, #102	; 0x66
 800123e:	256c      	movs	r5, #108	; 0x6c
 8001240:	2778      	movs	r7, #120	; 0x78
 8001242:	220a      	movs	r2, #10
 8001244:	46a2      	mov	sl, r4
 8001246:	46a8      	mov	r8, r5
 8001248:	46be      	mov	lr, r7
 800124a:	2600      	movs	r6, #0
 800124c:	f04f 0c70 	mov.w	ip, #112	; 0x70
 8001250:	9203      	str	r2, [sp, #12]
 8001252:	e5a5      	b.n	8000da0 <showString+0x188>
 8001254:	2466      	movs	r4, #102	; 0x66
 8001256:	220b      	movs	r2, #11
 8001258:	2600      	movs	r6, #0
 800125a:	4625      	mov	r5, r4
 800125c:	4627      	mov	r7, r4
 800125e:	46a4      	mov	ip, r4
 8001260:	f04f 0e36 	mov.w	lr, #54	; 0x36
 8001264:	f04f 081e 	mov.w	r8, #30
 8001268:	f04f 0a0e 	mov.w	sl, #14
 800126c:	9203      	str	r2, [sp, #12]
 800126e:	e597      	b.n	8000da0 <showString+0x188>
 8001270:	2444      	movs	r4, #68	; 0x44
 8001272:	220c      	movs	r2, #12
 8001274:	2600      	movs	r6, #0
 8001276:	4625      	mov	r5, r4
 8001278:	4627      	mov	r7, r4
 800127a:	46a2      	mov	sl, r4
 800127c:	f04f 0c54 	mov.w	ip, #84	; 0x54
 8001280:	f04f 0e7c 	mov.w	lr, #124	; 0x7c
 8001284:	f04f 086c 	mov.w	r8, #108	; 0x6c
 8001288:	9203      	str	r2, [sp, #12]
 800128a:	e589      	b.n	8000da0 <showString+0x188>
 800128c:	2466      	movs	r4, #102	; 0x66
 800128e:	220d      	movs	r2, #13
 8001290:	2600      	movs	r6, #0
 8001292:	4625      	mov	r5, r4
 8001294:	4627      	mov	r7, r4
 8001296:	46a6      	mov	lr, r4
 8001298:	46a0      	mov	r8, r4
 800129a:	46a2      	mov	sl, r4
 800129c:	f04f 0c7e 	mov.w	ip, #126	; 0x7e
 80012a0:	9203      	str	r2, [sp, #12]
 80012a2:	e57d      	b.n	8000da0 <showString+0x188>
 80012a4:	2566      	movs	r5, #102	; 0x66
 80012a6:	243c      	movs	r4, #60	; 0x3c
 80012a8:	220e      	movs	r2, #14
 80012aa:	46a2      	mov	sl, r4
 80012ac:	462f      	mov	r7, r5
 80012ae:	46ac      	mov	ip, r5
 80012b0:	46ae      	mov	lr, r5
 80012b2:	46a8      	mov	r8, r5
 80012b4:	2600      	movs	r6, #0
 80012b6:	9203      	str	r2, [sp, #12]
 80012b8:	e572      	b.n	8000da0 <showString+0x188>
 80012ba:	9903      	ldr	r1, [sp, #12]
 80012bc:	4a12      	ldr	r2, [pc, #72]	; (8001308 <showString+0x6f0>)
 80012be:	eb02 02c1 	add.w	r2, r2, r1, lsl #3
 80012c2:	f892 8001 	ldrb.w	r8, [r2, #1]
 80012c6:	f892 e002 	ldrb.w	lr, [r2, #2]
 80012ca:	f892 c003 	ldrb.w	ip, [r2, #3]
 80012ce:	7917      	ldrb	r7, [r2, #4]
 80012d0:	7955      	ldrb	r5, [r2, #5]
 80012d2:	7994      	ldrb	r4, [r2, #6]
 80012d4:	79d6      	ldrb	r6, [r2, #7]
 80012d6:	4a0c      	ldr	r2, [pc, #48]	; (8001308 <showString+0x6f0>)
 80012d8:	f812 a031 	ldrb.w	sl, [r2, r1, lsl #3]
 80012dc:	e560      	b.n	8000da0 <showString+0x188>
 80012de:	eb0b 0200 	add.w	r2, fp, r0
 80012e2:	f80b a000 	strb.w	sl, [fp, r0]
 80012e6:	f882 8099 	strb.w	r8, [r2, #153]	; 0x99
 80012ea:	f882 e132 	strb.w	lr, [r2, #306]	; 0x132
 80012ee:	f882 c1cb 	strb.w	ip, [r2, #459]	; 0x1cb
 80012f2:	f882 7264 	strb.w	r7, [r2, #612]	; 0x264
 80012f6:	f882 52fd 	strb.w	r5, [r2, #765]	; 0x2fd
 80012fa:	f882 4396 	strb.w	r4, [r2, #918]	; 0x396
 80012fe:	f882 642f 	strb.w	r6, [r2, #1071]	; 0x42f
 8001302:	e563      	b.n	8000dcc <showString+0x1b4>
 8001304:	4770      	bx	lr
 8001306:	bf00      	nop
 8001308:	0800502c 	.word	0x0800502c

0800130c <setTicker>:
 800130c:	2301      	movs	r3, #1
 800130e:	b510      	push	{r4, lr}
 8001310:	4c03      	ldr	r4, [pc, #12]	; (8001320 <setTicker+0x14>)
 8001312:	7023      	strb	r3, [r4, #0]
 8001314:	f7ff fc80 	bl	8000c18 <showString>
 8001318:	2300      	movs	r3, #0
 800131a:	7023      	strb	r3, [r4, #0]
 800131c:	bd10      	pop	{r4, pc}
 800131e:	bf00      	nop
 8001320:	20000599 	.word	0x20000599

08001324 <showTicker>:
 8001324:	e92d 4ff0 	stmdb	sp!, {r4, r5, r6, r7, r8, r9, sl, fp, lr}
 8001328:	4bca      	ldr	r3, [pc, #808]	; (8001654 <showTicker+0x330>)
 800132a:	b09b      	sub	sp, #108	; 0x6c
 800132c:	781a      	ldrb	r2, [r3, #0]
 800132e:	b182      	cbz	r2, 8001352 <showTicker+0x2e>
 8001330:	4cc9      	ldr	r4, [pc, #804]	; (8001658 <showTicker+0x334>)
 8001332:	7822      	ldrb	r2, [r4, #0]
 8001334:	2aff      	cmp	r2, #255	; 0xff
 8001336:	f000 830c 	beq.w	8001952 <showTicker+0x62e>
 800133a:	4dc8      	ldr	r5, [pc, #800]	; (800165c <showTicker+0x338>)
 800133c:	782c      	ldrb	r4, [r5, #0]
 800133e:	2cff      	cmp	r4, #255	; 0xff
 8001340:	f000 831b 	beq.w	800197a <showTicker+0x656>
 8001344:	4dc6      	ldr	r5, [pc, #792]	; (8001660 <showTicker+0x33c>)
 8001346:	782e      	ldrb	r6, [r5, #0]
 8001348:	2eff      	cmp	r6, #255	; 0xff
 800134a:	f000 8308 	beq.w	800195e <showTicker+0x63a>
 800134e:	2200      	movs	r2, #0
 8001350:	701a      	strb	r2, [r3, #0]
 8001352:	4bc4      	ldr	r3, [pc, #784]	; (8001664 <showTicker+0x340>)
 8001354:	681b      	ldr	r3, [r3, #0]
 8001356:	2b09      	cmp	r3, #9
 8001358:	f340 82f3 	ble.w	8001942 <showTicker+0x61e>
 800135c:	4bc2      	ldr	r3, [pc, #776]	; (8001668 <showTicker+0x344>)
 800135e:	1cc2      	adds	r2, r0, #3
 8001360:	b2d2      	uxtb	r2, r2
 8001362:	fba3 5402 	umull	r5, r4, r3, r2
 8001366:	0864      	lsrs	r4, r4, #1
 8001368:	eb04 0444 	add.w	r4, r4, r4, lsl #1
 800136c:	1b12      	subs	r2, r2, r4
 800136e:	b2d2      	uxtb	r2, r2
 8001370:	4614      	mov	r4, r2
 8001372:	fba3 6500 	umull	r6, r5, r3, r0
 8001376:	086d      	lsrs	r5, r5, #1
 8001378:	eb05 0245 	add.w	r2, r5, r5, lsl #1
 800137c:	9508      	str	r5, [sp, #32]
 800137e:	4dbb      	ldr	r5, [pc, #748]	; (800166c <showTicker+0x348>)
 8001380:	1a80      	subs	r0, r0, r2
 8001382:	5d2e      	ldrb	r6, [r5, r4]
 8001384:	b2c0      	uxtb	r0, r0
 8001386:	960c      	str	r6, [sp, #48]	; 0x30
 8001388:	940f      	str	r4, [sp, #60]	; 0x3c
 800138a:	f100 020c 	add.w	r2, r0, #12
 800138e:	08f4      	lsrs	r4, r6, #3
 8001390:	f100 0609 	add.w	r6, r0, #9
 8001394:	f100 0c03 	add.w	ip, r0, #3
 8001398:	b2f6      	uxtb	r6, r6
 800139a:	b2d2      	uxtb	r2, r2
 800139c:	eb04 0444 	add.w	r4, r4, r4, lsl #1
 80013a0:	fa5f f58c 	uxtb.w	r5, ip
 80013a4:	920e      	str	r2, [sp, #56]	; 0x38
 80013a6:	960d      	str	r6, [sp, #52]	; 0x34
 80013a8:	4ab1      	ldr	r2, [pc, #708]	; (8001670 <showTicker+0x34c>)
 80013aa:	eb00 0e04 	add.w	lr, r0, r4
 80013ae:	eb04 0c05 	add.w	ip, r4, r5
 80013b2:	1d87      	adds	r7, r0, #6
 80013b4:	9501      	str	r5, [sp, #4]
 80013b6:	9e0d      	ldr	r6, [sp, #52]	; 0x34
 80013b8:	9d0e      	ldr	r5, [sp, #56]	; 0x38
 80013ba:	f10e 0b03 	add.w	fp, lr, #3
 80013be:	b2ff      	uxtb	r7, r7
 80013c0:	19a6      	adds	r6, r4, r6
 80013c2:	9711      	str	r7, [sp, #68]	; 0x44
 80013c4:	19e7      	adds	r7, r4, r7
 80013c6:	442c      	add	r4, r5
 80013c8:	eb02 050b 	add.w	r5, r2, fp
 80013cc:	f10c 0a03 	add.w	sl, ip, #3
 80013d0:	f812 b00b 	ldrb.w	fp, [r2, fp]
 80013d4:	9502      	str	r5, [sp, #8]
 80013d6:	eb02 050e 	add.w	r5, r2, lr
 80013da:	f107 0903 	add.w	r9, r7, #3
 80013de:	950a      	str	r5, [sp, #40]	; 0x28
 80013e0:	eb02 050a 	add.w	r5, r2, sl
 80013e4:	f106 0803 	add.w	r8, r6, #3
 80013e8:	9503      	str	r5, [sp, #12]
 80013ea:	f8cd b04c 	str.w	fp, [sp, #76]	; 0x4c
 80013ee:	eb02 050c 	add.w	r5, r2, ip
 80013f2:	f812 b00e 	ldrb.w	fp, [r2, lr]
 80013f6:	f812 e00a 	ldrb.w	lr, [r2, sl]
 80013fa:	f812 a00c 	ldrb.w	sl, [r2, ip]
 80013fe:	eb02 0c09 	add.w	ip, r2, r9
 8001402:	f8cd c014 	str.w	ip, [sp, #20]
 8001406:	f812 c009 	ldrb.w	ip, [r2, r9]
 800140a:	eb02 0908 	add.w	r9, r2, r8
 800140e:	f812 8008 	ldrb.w	r8, [r2, r8]
 8001412:	950b      	str	r5, [sp, #44]	; 0x2c
 8001414:	f8cd 805c 	str.w	r8, [sp, #92]	; 0x5c
 8001418:	fba3 8101 	umull	r8, r1, r3, r1
 800141c:	9b0c      	ldr	r3, [sp, #48]	; 0x30
 800141e:	19d5      	adds	r5, r2, r7
 8001420:	f003 0307 	and.w	r3, r3, #7
 8001424:	5dd7      	ldrb	r7, [r2, r7]
 8001426:	fa0b f803 	lsl.w	r8, fp, r3
 800142a:	f8cd 8048 	str.w	r8, [sp, #72]	; 0x48
 800142e:	fa0a f803 	lsl.w	r8, sl, r3
 8001432:	f8cd 8050 	str.w	r8, [sp, #80]	; 0x50
 8001436:	fa07 f803 	lsl.w	r8, r7, r3
 800143a:	1997      	adds	r7, r2, r6
 800143c:	9504      	str	r5, [sp, #16]
 800143e:	f8cd 901c 	str.w	r9, [sp, #28]
 8001442:	9300      	str	r3, [sp, #0]
 8001444:	f8cd 8054 	str.w	r8, [sp, #84]	; 0x54
 8001448:	9706      	str	r7, [sp, #24]
 800144a:	5d96      	ldrb	r6, [r2, r6]
 800144c:	1ce5      	adds	r5, r4, #3
 800144e:	fa06 f803 	lsl.w	r8, r6, r3
 8001452:	1956      	adds	r6, r2, r5
 8001454:	9609      	str	r6, [sp, #36]	; 0x24
 8001456:	1916      	adds	r6, r2, r4
 8001458:	5d14      	ldrb	r4, [r2, r4]
 800145a:	f8cd 8058 	str.w	r8, [sp, #88]	; 0x58
 800145e:	fa04 f803 	lsl.w	r8, r4, r3
 8001462:	9c0a      	ldr	r4, [sp, #40]	; 0x28
 8001464:	f89d 7020 	ldrb.w	r7, [sp, #32]
 8001468:	f894 4099 	ldrb.w	r4, [r4, #153]	; 0x99
 800146c:	5d55      	ldrb	r5, [r2, r5]
 800146e:	f8cd 8060 	str.w	r8, [sp, #96]	; 0x60
 8001472:	ebc7 0251 	rsb	r2, r7, r1, lsr #1
 8001476:	fa04 f803 	lsl.w	r8, r4, r3
 800147a:	9902      	ldr	r1, [sp, #8]
 800147c:	9c05      	ldr	r4, [sp, #20]
 800147e:	3201      	adds	r2, #1
 8001480:	f891 b099 	ldrb.w	fp, [r1, #153]	; 0x99
 8001484:	f894 9099 	ldrb.w	r9, [r4, #153]	; 0x99
 8001488:	990b      	ldr	r1, [sp, #44]	; 0x2c
 800148a:	9608      	str	r6, [sp, #32]
 800148c:	9c04      	ldr	r4, [sp, #16]
 800148e:	9e03      	ldr	r6, [sp, #12]
 8001490:	00d2      	lsls	r2, r2, #3
 8001492:	b2d2      	uxtb	r2, r2
 8001494:	f896 a099 	ldrb.w	sl, [r6, #153]	; 0x99
 8001498:	f894 4099 	ldrb.w	r4, [r4, #153]	; 0x99
 800149c:	f891 6099 	ldrb.w	r6, [r1, #153]	; 0x99
 80014a0:	3a28      	subs	r2, #40	; 0x28
 80014a2:	f8cd 8064 	str.w	r8, [sp, #100]	; 0x64
 80014a6:	eb02 08c7 	add.w	r8, r2, r7, lsl #3
 80014aa:	f1c3 0208 	rsb	r2, r3, #8
 80014ae:	409e      	lsls	r6, r3
 80014b0:	409c      	lsls	r4, r3
 80014b2:	4613      	mov	r3, r2
 80014b4:	9913      	ldr	r1, [sp, #76]	; 0x4c
 80014b6:	f8cd 8040 	str.w	r8, [sp, #64]	; 0x40
 80014ba:	fa41 f802 	asr.w	r8, r1, r2
 80014be:	9917      	ldr	r1, [sp, #92]	; 0x5c
 80014c0:	fa4a fa02 	asr.w	sl, sl, r2
 80014c4:	fa41 f702 	asr.w	r7, r1, r2
 80014c8:	fa49 f902 	asr.w	r9, r9, r2
 80014cc:	fa4e fe02 	asr.w	lr, lr, r2
 80014d0:	fa4c fc02 	asr.w	ip, ip, r2
 80014d4:	4115      	asrs	r5, r2
 80014d6:	fa4b fb02 	asr.w	fp, fp, r2
 80014da:	9a14      	ldr	r2, [sp, #80]	; 0x50
 80014dc:	9912      	ldr	r1, [sp, #72]	; 0x48
 80014de:	ea42 0e0e 	orr.w	lr, r2, lr
 80014e2:	9a15      	ldr	r2, [sp, #84]	; 0x54
 80014e4:	ea41 0808 	orr.w	r8, r1, r8
 80014e8:	ea42 0c0c 	orr.w	ip, r2, ip
 80014ec:	9a16      	ldr	r2, [sp, #88]	; 0x58
 80014ee:	4961      	ldr	r1, [pc, #388]	; (8001674 <showTicker+0x350>)
 80014f0:	4317      	orrs	r7, r2
 80014f2:	9a18      	ldr	r2, [sp, #96]	; 0x60
 80014f4:	f801 8000 	strb.w	r8, [r1, r0]
 80014f8:	4315      	orrs	r5, r2
 80014fa:	9a19      	ldr	r2, [sp, #100]	; 0x64
 80014fc:	ea44 0409 	orr.w	r4, r4, r9
 8001500:	ea42 0b0b 	orr.w	fp, r2, fp
 8001504:	f8cd b048 	str.w	fp, [sp, #72]	; 0x48
 8001508:	eb01 0b00 	add.w	fp, r1, r0
 800150c:	9801      	ldr	r0, [sp, #4]
 800150e:	9a11      	ldr	r2, [sp, #68]	; 0x44
 8001510:	f801 e000 	strb.w	lr, [r1, r0]
 8001514:	eb01 0900 	add.w	r9, r1, r0
 8001518:	f801 c002 	strb.w	ip, [r1, r2]
 800151c:	eb01 0802 	add.w	r8, r1, r2
 8001520:	9807      	ldr	r0, [sp, #28]
 8001522:	9a0d      	ldr	r2, [sp, #52]	; 0x34
 8001524:	f890 0099 	ldrb.w	r0, [r0, #153]	; 0x99
 8001528:	548f      	strb	r7, [r1, r2]
 800152a:	9f06      	ldr	r7, [sp, #24]
 800152c:	ea46 060a 	orr.w	r6, r6, sl
 8001530:	9301      	str	r3, [sp, #4]
 8001532:	fa40 fa03 	asr.w	sl, r0, r3
 8001536:	f897 7099 	ldrb.w	r7, [r7, #153]	; 0x99
 800153a:	9b00      	ldr	r3, [sp, #0]
 800153c:	eb01 0e02 	add.w	lr, r1, r2
 8001540:	409f      	lsls	r7, r3
 8001542:	ea4a 0007 	orr.w	r0, sl, r7
 8001546:	4603      	mov	r3, r0
 8001548:	9a09      	ldr	r2, [sp, #36]	; 0x24
 800154a:	9801      	ldr	r0, [sp, #4]
 800154c:	f892 7099 	ldrb.w	r7, [r2, #153]	; 0x99
 8001550:	9a0e      	ldr	r2, [sp, #56]	; 0x38
 8001552:	548d      	strb	r5, [r1, r2]
 8001554:	eb01 0a02 	add.w	sl, r1, r2
 8001558:	9a08      	ldr	r2, [sp, #32]
 800155a:	fa47 f500 	asr.w	r5, r7, r0
 800155e:	f892 1099 	ldrb.w	r1, [r2, #153]	; 0x99
 8001562:	9812      	ldr	r0, [sp, #72]	; 0x48
 8001564:	9a00      	ldr	r2, [sp, #0]
 8001566:	f88b 000f 	strb.w	r0, [fp, #15]
 800156a:	4091      	lsls	r1, r2
 800156c:	f889 600f 	strb.w	r6, [r9, #15]
 8001570:	9a0a      	ldr	r2, [sp, #40]	; 0x28
 8001572:	f888 400f 	strb.w	r4, [r8, #15]
 8001576:	9802      	ldr	r0, [sp, #8]
 8001578:	9c03      	ldr	r4, [sp, #12]
 800157a:	430d      	orrs	r5, r1
 800157c:	f892 6132 	ldrb.w	r6, [r2, #306]	; 0x132
 8001580:	f88e 300f 	strb.w	r3, [lr, #15]
 8001584:	f894 7132 	ldrb.w	r7, [r4, #306]	; 0x132
 8001588:	f88a 500f 	strb.w	r5, [sl, #15]
 800158c:	f890 5132 	ldrb.w	r5, [r0, #306]	; 0x132
 8001590:	990b      	ldr	r1, [sp, #44]	; 0x2c
 8001592:	9805      	ldr	r0, [sp, #20]
 8001594:	9b00      	ldr	r3, [sp, #0]
 8001596:	f891 4132 	ldrb.w	r4, [r1, #306]	; 0x132
 800159a:	409e      	lsls	r6, r3
 800159c:	f890 1132 	ldrb.w	r1, [r0, #306]	; 0x132
 80015a0:	9b01      	ldr	r3, [sp, #4]
 80015a2:	9804      	ldr	r0, [sp, #16]
 80015a4:	411f      	asrs	r7, r3
 80015a6:	f890 c132 	ldrb.w	ip, [r0, #306]	; 0x132
 80015aa:	fa45 f003 	asr.w	r0, r5, r3
 80015ae:	461d      	mov	r5, r3
 80015b0:	9b00      	ldr	r3, [sp, #0]
 80015b2:	4129      	asrs	r1, r5
 80015b4:	409c      	lsls	r4, r3
 80015b6:	462b      	mov	r3, r5
 80015b8:	9d00      	ldr	r5, [sp, #0]
 80015ba:	433c      	orrs	r4, r7
 80015bc:	fa0c fc05 	lsl.w	ip, ip, r5
 80015c0:	9f06      	ldr	r7, [sp, #24]
 80015c2:	ea46 0500 	orr.w	r5, r6, r0
 80015c6:	9e07      	ldr	r6, [sp, #28]
 80015c8:	f897 0132 	ldrb.w	r0, [r7, #306]	; 0x132
 80015cc:	f896 6132 	ldrb.w	r6, [r6, #306]	; 0x132
 80015d0:	9f00      	ldr	r7, [sp, #0]
 80015d2:	411e      	asrs	r6, r3
 80015d4:	40b8      	lsls	r0, r7
 80015d6:	4330      	orrs	r0, r6
 80015d8:	9f09      	ldr	r7, [sp, #36]	; 0x24
 80015da:	9e08      	ldr	r6, [sp, #32]
 80015dc:	ea4c 0c01 	orr.w	ip, ip, r1
 80015e0:	f896 6132 	ldrb.w	r6, [r6, #306]	; 0x132
 80015e4:	f897 1132 	ldrb.w	r1, [r7, #306]	; 0x132
 80015e8:	9f00      	ldr	r7, [sp, #0]
 80015ea:	4119      	asrs	r1, r3
 80015ec:	40be      	lsls	r6, r7
 80015ee:	f892 71cb 	ldrb.w	r7, [r2, #459]	; 0x1cb
 80015f2:	461a      	mov	r2, r3
 80015f4:	4331      	orrs	r1, r6
 80015f6:	9e02      	ldr	r6, [sp, #8]
 80015f8:	f88b 501e 	strb.w	r5, [fp, #30]
 80015fc:	f896 61cb 	ldrb.w	r6, [r6, #459]	; 0x1cb
 8001600:	f889 401e 	strb.w	r4, [r9, #30]
 8001604:	411e      	asrs	r6, r3
 8001606:	9b00      	ldr	r3, [sp, #0]
 8001608:	409f      	lsls	r7, r3
 800160a:	4337      	orrs	r7, r6
 800160c:	9e03      	ldr	r6, [sp, #12]
 800160e:	9b00      	ldr	r3, [sp, #0]
 8001610:	f896 61cb 	ldrb.w	r6, [r6, #459]	; 0x1cb
 8001614:	fa46 f502 	asr.w	r5, r6, r2
 8001618:	9a0b      	ldr	r2, [sp, #44]	; 0x2c
 800161a:	f892 61cb 	ldrb.w	r6, [r2, #459]	; 0x1cb
 800161e:	409e      	lsls	r6, r3
 8001620:	432e      	orrs	r6, r5
 8001622:	9d05      	ldr	r5, [sp, #20]
 8001624:	f895 41cb 	ldrb.w	r4, [r5, #459]	; 0x1cb
 8001628:	9d04      	ldr	r5, [sp, #16]
 800162a:	9a01      	ldr	r2, [sp, #4]
 800162c:	f895 51cb 	ldrb.w	r5, [r5, #459]	; 0x1cb
 8001630:	4114      	asrs	r4, r2
 8001632:	409d      	lsls	r5, r3
 8001634:	4325      	orrs	r5, r4
 8001636:	9c07      	ldr	r4, [sp, #28]
 8001638:	f888 c01e 	strb.w	ip, [r8, #30]
 800163c:	f894 41cb 	ldrb.w	r4, [r4, #459]	; 0x1cb
 8001640:	9b00      	ldr	r3, [sp, #0]
 8001642:	fa44 fc02 	asr.w	ip, r4, r2
 8001646:	9c06      	ldr	r4, [sp, #24]
 8001648:	f88e 001e 	strb.w	r0, [lr, #30]
 800164c:	f894 41cb 	ldrb.w	r4, [r4, #459]	; 0x1cb
 8001650:	e012      	b.n	8001678 <showTicker+0x354>
 8001652:	bf00      	nop
 8001654:	20000005 	.word	0x20000005
 8001658:	20000006 	.word	0x20000006
 800165c:	20000007 	.word	0x20000007
 8001660:	20000008 	.word	0x20000008
 8001664:	200005a0 	.word	0x200005a0
 8001668:	aaaaaaab 	.word	0xaaaaaaab
 800166c:	2000059c 	.word	0x2000059c
 8001670:	200000c0 	.word	0x200000c0
 8001674:	20000048 	.word	0x20000048
 8001678:	9809      	ldr	r0, [sp, #36]	; 0x24
 800167a:	409c      	lsls	r4, r3
 800167c:	4613      	mov	r3, r2
 800167e:	ea44 040c 	orr.w	r4, r4, ip
 8001682:	f890 c1cb 	ldrb.w	ip, [r0, #459]	; 0x1cb
 8001686:	9808      	ldr	r0, [sp, #32]
 8001688:	fa4c fc02 	asr.w	ip, ip, r2
 800168c:	f890 01cb 	ldrb.w	r0, [r0, #459]	; 0x1cb
 8001690:	9a00      	ldr	r2, [sp, #0]
 8001692:	f88a 101e 	strb.w	r1, [sl, #30]
 8001696:	4090      	lsls	r0, r2
 8001698:	9a02      	ldr	r2, [sp, #8]
 800169a:	ea40 000c 	orr.w	r0, r0, ip
 800169e:	f892 c264 	ldrb.w	ip, [r2, #612]	; 0x264
 80016a2:	9a0a      	ldr	r2, [sp, #40]	; 0x28
 80016a4:	fa4c fc03 	asr.w	ip, ip, r3
 80016a8:	f892 1264 	ldrb.w	r1, [r2, #612]	; 0x264
 80016ac:	9b00      	ldr	r3, [sp, #0]
 80016ae:	f88b 702d 	strb.w	r7, [fp, #45]	; 0x2d
 80016b2:	4099      	lsls	r1, r3
 80016b4:	ea41 010c 	orr.w	r1, r1, ip
 80016b8:	f889 602d 	strb.w	r6, [r9, #45]	; 0x2d
 80016bc:	9b0b      	ldr	r3, [sp, #44]	; 0x2c
 80016be:	f888 502d 	strb.w	r5, [r8, #45]	; 0x2d
 80016c2:	f88e 402d 	strb.w	r4, [lr, #45]	; 0x2d
 80016c6:	f88a 002d 	strb.w	r0, [sl, #45]	; 0x2d
 80016ca:	f88b 103c 	strb.w	r1, [fp, #60]	; 0x3c
 80016ce:	9903      	ldr	r1, [sp, #12]
 80016d0:	f893 5264 	ldrb.w	r5, [r3, #612]	; 0x264
 80016d4:	f891 1264 	ldrb.w	r1, [r1, #612]	; 0x264
 80016d8:	9c05      	ldr	r4, [sp, #20]
 80016da:	9f04      	ldr	r7, [sp, #16]
 80016dc:	f894 0264 	ldrb.w	r0, [r4, #612]	; 0x264
 80016e0:	f897 4264 	ldrb.w	r4, [r7, #612]	; 0x264
 80016e4:	9f07      	ldr	r7, [sp, #28]
 80016e6:	f897 6264 	ldrb.w	r6, [r7, #612]	; 0x264
 80016ea:	9f06      	ldr	r7, [sp, #24]
 80016ec:	f897 c264 	ldrb.w	ip, [r7, #612]	; 0x264
 80016f0:	9f00      	ldr	r7, [sp, #0]
 80016f2:	fa05 f707 	lsl.w	r7, r5, r7
 80016f6:	9d01      	ldr	r5, [sp, #4]
 80016f8:	4129      	asrs	r1, r5
 80016fa:	910a      	str	r1, [sp, #40]	; 0x28
 80016fc:	9900      	ldr	r1, [sp, #0]
 80016fe:	4128      	asrs	r0, r5
 8001700:	412e      	asrs	r6, r5
 8001702:	408c      	lsls	r4, r1
 8001704:	9d0a      	ldr	r5, [sp, #40]	; 0x28
 8001706:	fa0c fc01 	lsl.w	ip, ip, r1
 800170a:	9909      	ldr	r1, [sp, #36]	; 0x24
 800170c:	433d      	orrs	r5, r7
 800170e:	4304      	orrs	r4, r0
 8001710:	9f01      	ldr	r7, [sp, #4]
 8001712:	f891 1264 	ldrb.w	r1, [r1, #612]	; 0x264
 8001716:	9808      	ldr	r0, [sp, #32]
 8001718:	4139      	asrs	r1, r7
 800171a:	f890 0264 	ldrb.w	r0, [r0, #612]	; 0x264
 800171e:	9f00      	ldr	r7, [sp, #0]
 8001720:	ea4c 0c06 	orr.w	ip, ip, r6
 8001724:	40b8      	lsls	r0, r7
 8001726:	9f02      	ldr	r7, [sp, #8]
 8001728:	4301      	orrs	r1, r0
 800172a:	f897 62fd 	ldrb.w	r6, [r7, #765]	; 0x2fd
 800172e:	9800      	ldr	r0, [sp, #0]
 8001730:	9f01      	ldr	r7, [sp, #4]
 8001732:	910a      	str	r1, [sp, #40]	; 0x28
 8001734:	f892 12fd 	ldrb.w	r1, [r2, #765]	; 0x2fd
 8001738:	413e      	asrs	r6, r7
 800173a:	4081      	lsls	r1, r0
 800173c:	430e      	orrs	r6, r1
 800173e:	960b      	str	r6, [sp, #44]	; 0x2c
 8001740:	9e03      	ldr	r6, [sp, #12]
 8001742:	9901      	ldr	r1, [sp, #4]
 8001744:	f893 72fd 	ldrb.w	r7, [r3, #765]	; 0x2fd
 8001748:	f896 62fd 	ldrb.w	r6, [r6, #765]	; 0x2fd
 800174c:	4087      	lsls	r7, r0
 800174e:	410e      	asrs	r6, r1
 8001750:	4337      	orrs	r7, r6
 8001752:	9e05      	ldr	r6, [sp, #20]
 8001754:	f896 62fd 	ldrb.w	r6, [r6, #765]	; 0x2fd
 8001758:	f889 503c 	strb.w	r5, [r9, #60]	; 0x3c
 800175c:	fa46 f501 	asr.w	r5, r6, r1
 8001760:	9904      	ldr	r1, [sp, #16]
 8001762:	f888 403c 	strb.w	r4, [r8, #60]	; 0x3c
 8001766:	f891 62fd 	ldrb.w	r6, [r1, #765]	; 0x2fd
 800176a:	9c07      	ldr	r4, [sp, #28]
 800176c:	4086      	lsls	r6, r0
 800176e:	432e      	orrs	r6, r5
 8001770:	9d06      	ldr	r5, [sp, #24]
 8001772:	9901      	ldr	r1, [sp, #4]
 8001774:	f894 42fd 	ldrb.w	r4, [r4, #765]	; 0x2fd
 8001778:	f895 52fd 	ldrb.w	r5, [r5, #765]	; 0x2fd
 800177c:	410c      	asrs	r4, r1
 800177e:	4085      	lsls	r5, r0
 8001780:	4325      	orrs	r5, r4
 8001782:	9c09      	ldr	r4, [sp, #36]	; 0x24
 8001784:	9901      	ldr	r1, [sp, #4]
 8001786:	f894 42fd 	ldrb.w	r4, [r4, #765]	; 0x2fd
 800178a:	f88e c03c 	strb.w	ip, [lr, #60]	; 0x3c
 800178e:	fa44 fc01 	asr.w	ip, r4, r1
 8001792:	9c08      	ldr	r4, [sp, #32]
 8001794:	990a      	ldr	r1, [sp, #40]	; 0x28
 8001796:	f894 42fd 	ldrb.w	r4, [r4, #765]	; 0x2fd
 800179a:	f88a 103c 	strb.w	r1, [sl, #60]	; 0x3c
 800179e:	4084      	lsls	r4, r0
 80017a0:	9802      	ldr	r0, [sp, #8]
 80017a2:	ea44 040c 	orr.w	r4, r4, ip
 80017a6:	9901      	ldr	r1, [sp, #4]
 80017a8:	f890 c396 	ldrb.w	ip, [r0, #918]	; 0x396
 80017ac:	f892 0396 	ldrb.w	r0, [r2, #918]	; 0x396
 80017b0:	fa4c fc01 	asr.w	ip, ip, r1
 80017b4:	9900      	ldr	r1, [sp, #0]
 80017b6:	4088      	lsls	r0, r1
 80017b8:	9903      	ldr	r1, [sp, #12]
 80017ba:	ea40 000c 	orr.w	r0, r0, ip
 80017be:	f891 c396 	ldrb.w	ip, [r1, #918]	; 0x396
 80017c2:	990b      	ldr	r1, [sp, #44]	; 0x2c
 80017c4:	f88b 104b 	strb.w	r1, [fp, #75]	; 0x4b
 80017c8:	9901      	ldr	r1, [sp, #4]
 80017ca:	f889 704b 	strb.w	r7, [r9, #75]	; 0x4b
 80017ce:	fa4c fc01 	asr.w	ip, ip, r1
 80017d2:	9f00      	ldr	r7, [sp, #0]
 80017d4:	f893 1396 	ldrb.w	r1, [r3, #918]	; 0x396
 80017d8:	f888 604b 	strb.w	r6, [r8, #75]	; 0x4b
 80017dc:	40b9      	lsls	r1, r7
 80017de:	f88e 504b 	strb.w	r5, [lr, #75]	; 0x4b
 80017e2:	f88a 404b 	strb.w	r4, [sl, #75]	; 0x4b
 80017e6:	f88b 005a 	strb.w	r0, [fp, #90]	; 0x5a
 80017ea:	9802      	ldr	r0, [sp, #8]
 80017ec:	f892 542f 	ldrb.w	r5, [r2, #1071]	; 0x42f
 80017f0:	9a05      	ldr	r2, [sp, #20]
 80017f2:	ea41 010c 	orr.w	r1, r1, ip
 80017f6:	f892 6396 	ldrb.w	r6, [r2, #918]	; 0x396
 80017fa:	f890 042f 	ldrb.w	r0, [r0, #1071]	; 0x42f
 80017fe:	f889 105a 	strb.w	r1, [r9, #90]	; 0x5a
 8001802:	9903      	ldr	r1, [sp, #12]
 8001804:	900a      	str	r0, [sp, #40]	; 0x28
 8001806:	9602      	str	r6, [sp, #8]
 8001808:	f891 042f 	ldrb.w	r0, [r1, #1071]	; 0x42f
 800180c:	f892 642f 	ldrb.w	r6, [r2, #1071]	; 0x42f
 8001810:	9a04      	ldr	r2, [sp, #16]
 8001812:	900b      	str	r0, [sp, #44]	; 0x2c
 8001814:	f892 7396 	ldrb.w	r7, [r2, #918]	; 0x396
 8001818:	f892 042f 	ldrb.w	r0, [r2, #1071]	; 0x42f
 800181c:	9a07      	ldr	r2, [sp, #28]
 800181e:	f893 442f 	ldrb.w	r4, [r3, #1071]	; 0x42f
 8001822:	f892 c396 	ldrb.w	ip, [r2, #918]	; 0x396
 8001826:	960d      	str	r6, [sp, #52]	; 0x34
 8001828:	f8cd c00c 	str.w	ip, [sp, #12]
 800182c:	f892 c42f 	ldrb.w	ip, [r2, #1071]	; 0x42f
 8001830:	9a06      	ldr	r2, [sp, #24]
 8001832:	f8cd c038 	str.w	ip, [sp, #56]	; 0x38
 8001836:	f892 6396 	ldrb.w	r6, [r2, #918]	; 0x396
 800183a:	f892 342f 	ldrb.w	r3, [r2, #1071]	; 0x42f
 800183e:	9a09      	ldr	r2, [sp, #36]	; 0x24
 8001840:	f892 c396 	ldrb.w	ip, [r2, #918]	; 0x396
 8001844:	f8cd c010 	str.w	ip, [sp, #16]
 8001848:	f892 c42f 	ldrb.w	ip, [r2, #1071]	; 0x42f
 800184c:	9a08      	ldr	r2, [sp, #32]
 800184e:	f8cd c044 	str.w	ip, [sp, #68]	; 0x44
 8001852:	f892 c396 	ldrb.w	ip, [r2, #918]	; 0x396
 8001856:	f892 242f 	ldrb.w	r2, [r2, #1071]	; 0x42f
 800185a:	9910      	ldr	r1, [sp, #64]	; 0x40
 800185c:	9209      	str	r2, [sp, #36]	; 0x24
 800185e:	ea21 72e1 	bic.w	r2, r1, r1, asr #31
 8001862:	9210      	str	r2, [sp, #64]	; 0x40
 8001864:	9a0c      	ldr	r2, [sp, #48]	; 0x30
 8001866:	990a      	ldr	r1, [sp, #40]	; 0x28
 8001868:	3201      	adds	r2, #1
 800186a:	920c      	str	r2, [sp, #48]	; 0x30
 800186c:	9a01      	ldr	r2, [sp, #4]
 800186e:	fa41 f202 	asr.w	r2, r1, r2
 8001872:	9205      	str	r2, [sp, #20]
 8001874:	990b      	ldr	r1, [sp, #44]	; 0x2c
 8001876:	9a01      	ldr	r2, [sp, #4]
 8001878:	4111      	asrs	r1, r2
 800187a:	9106      	str	r1, [sp, #24]
 800187c:	9900      	ldr	r1, [sp, #0]
 800187e:	408d      	lsls	r5, r1
 8001880:	408c      	lsls	r4, r1
 8001882:	9902      	ldr	r1, [sp, #8]
 8001884:	4111      	asrs	r1, r2
 8001886:	9101      	str	r1, [sp, #4]
 8001888:	990d      	ldr	r1, [sp, #52]	; 0x34
 800188a:	4111      	asrs	r1, r2
 800188c:	9107      	str	r1, [sp, #28]
 800188e:	9900      	ldr	r1, [sp, #0]
 8001890:	4088      	lsls	r0, r1
 8001892:	408f      	lsls	r7, r1
 8001894:	9903      	ldr	r1, [sp, #12]
 8001896:	4111      	asrs	r1, r2
 8001898:	9103      	str	r1, [sp, #12]
 800189a:	990e      	ldr	r1, [sp, #56]	; 0x38
 800189c:	4111      	asrs	r1, r2
 800189e:	9108      	str	r1, [sp, #32]
 80018a0:	9900      	ldr	r1, [sp, #0]
 80018a2:	fa06 f101 	lsl.w	r1, r6, r1
 80018a6:	9102      	str	r1, [sp, #8]
 80018a8:	9900      	ldr	r1, [sp, #0]
 80018aa:	9e04      	ldr	r6, [sp, #16]
 80018ac:	408b      	lsls	r3, r1
 80018ae:	4619      	mov	r1, r3
 80018b0:	4613      	mov	r3, r2
 80018b2:	4116      	asrs	r6, r2
 80018b4:	9a11      	ldr	r2, [sp, #68]	; 0x44
 80018b6:	9604      	str	r6, [sp, #16]
 80018b8:	411a      	asrs	r2, r3
 80018ba:	9e09      	ldr	r6, [sp, #36]	; 0x24
 80018bc:	9b00      	ldr	r3, [sp, #0]
 80018be:	fa0c fc03 	lsl.w	ip, ip, r3
 80018c2:	fa06 f303 	lsl.w	r3, r6, r3
 80018c6:	f89d 6040 	ldrb.w	r6, [sp, #64]	; 0x40
 80018ca:	4313      	orrs	r3, r2
 80018cc:	9609      	str	r6, [sp, #36]	; 0x24
 80018ce:	f89d 6030 	ldrb.w	r6, [sp, #48]	; 0x30
 80018d2:	9600      	str	r6, [sp, #0]
 80018d4:	9e05      	ldr	r6, [sp, #20]
 80018d6:	4335      	orrs	r5, r6
 80018d8:	9e06      	ldr	r6, [sp, #24]
 80018da:	4334      	orrs	r4, r6
 80018dc:	9e01      	ldr	r6, [sp, #4]
 80018de:	4337      	orrs	r7, r6
 80018e0:	9e07      	ldr	r6, [sp, #28]
 80018e2:	f888 705a 	strb.w	r7, [r8, #90]	; 0x5a
 80018e6:	4306      	orrs	r6, r0
 80018e8:	9601      	str	r6, [sp, #4]
 80018ea:	e9dd 0602 	ldrd	r0, r6, [sp, #8]
 80018ee:	4330      	orrs	r0, r6
 80018f0:	4606      	mov	r6, r0
 80018f2:	9808      	ldr	r0, [sp, #32]
 80018f4:	9a01      	ldr	r2, [sp, #4]
 80018f6:	4301      	orrs	r1, r0
 80018f8:	9804      	ldr	r0, [sp, #16]
 80018fa:	f88e 605a 	strb.w	r6, [lr, #90]	; 0x5a
 80018fe:	ea4c 0c00 	orr.w	ip, ip, r0
 8001902:	f88a c05a 	strb.w	ip, [sl, #90]	; 0x5a
 8001906:	9e09      	ldr	r6, [sp, #36]	; 0x24
 8001908:	f88b 5069 	strb.w	r5, [fp, #105]	; 0x69
 800190c:	f889 4069 	strb.w	r4, [r9, #105]	; 0x69
 8001910:	f888 2069 	strb.w	r2, [r8, #105]	; 0x69
 8001914:	f88e 1069 	strb.w	r1, [lr, #105]	; 0x69
 8001918:	9900      	ldr	r1, [sp, #0]
 800191a:	f88a 3069 	strb.w	r3, [sl, #105]	; 0x69
 800191e:	42b1      	cmp	r1, r6
 8001920:	d812      	bhi.n	8001948 <showTicker+0x624>
 8001922:	4b1a      	ldr	r3, [pc, #104]	; (800198c <showTicker+0x668>)
 8001924:	9c0f      	ldr	r4, [sp, #60]	; 0x3c
 8001926:	5519      	strb	r1, [r3, r4]
 8001928:	4a19      	ldr	r2, [pc, #100]	; (8001990 <showTicker+0x66c>)
 800192a:	491a      	ldr	r1, [pc, #104]	; (8001994 <showTicker+0x670>)
 800192c:	7813      	ldrb	r3, [r2, #0]
 800192e:	7809      	ldrb	r1, [r1, #0]
 8001930:	3301      	adds	r3, #1
 8001932:	b2db      	uxtb	r3, r3
 8001934:	4299      	cmp	r1, r3
 8001936:	7013      	strb	r3, [r2, #0]
 8001938:	d103      	bne.n	8001942 <showTicker+0x61e>
 800193a:	2300      	movs	r3, #0
 800193c:	4916      	ldr	r1, [pc, #88]	; (8001998 <showTicker+0x674>)
 800193e:	7013      	strb	r3, [r2, #0]
 8001940:	600b      	str	r3, [r1, #0]
 8001942:	b01b      	add	sp, #108	; 0x6c
 8001944:	e8bd 8ff0 	ldmia.w	sp!, {r4, r5, r6, r7, r8, r9, sl, fp, pc}
 8001948:	2300      	movs	r3, #0
 800194a:	4a10      	ldr	r2, [pc, #64]	; (800198c <showTicker+0x668>)
 800194c:	990f      	ldr	r1, [sp, #60]	; 0x3c
 800194e:	5453      	strb	r3, [r2, r1]
 8001950:	e7ea      	b.n	8001928 <showTicker+0x604>
 8001952:	4a10      	ldr	r2, [pc, #64]	; (8001994 <showTicker+0x670>)
 8001954:	7020      	strb	r0, [r4, #0]
 8001956:	7813      	ldrb	r3, [r2, #0]
 8001958:	3301      	adds	r3, #1
 800195a:	7013      	strb	r3, [r2, #0]
 800195c:	e4f9      	b.n	8001352 <showTicker+0x2e>
 800195e:	4282      	cmp	r2, r0
 8001960:	f43f acf5 	beq.w	800134e <showTicker+0x2a>
 8001964:	4284      	cmp	r4, r0
 8001966:	f43f acf2 	beq.w	800134e <showTicker+0x2a>
 800196a:	2600      	movs	r6, #0
 800196c:	4c09      	ldr	r4, [pc, #36]	; (8001994 <showTicker+0x670>)
 800196e:	701e      	strb	r6, [r3, #0]
 8001970:	7822      	ldrb	r2, [r4, #0]
 8001972:	7028      	strb	r0, [r5, #0]
 8001974:	1c53      	adds	r3, r2, #1
 8001976:	7023      	strb	r3, [r4, #0]
 8001978:	e4eb      	b.n	8001352 <showTicker+0x2e>
 800197a:	4282      	cmp	r2, r0
 800197c:	f43f ace7 	beq.w	800134e <showTicker+0x2a>
 8001980:	4a04      	ldr	r2, [pc, #16]	; (8001994 <showTicker+0x670>)
 8001982:	7028      	strb	r0, [r5, #0]
 8001984:	7813      	ldrb	r3, [r2, #0]
 8001986:	3301      	adds	r3, #1
 8001988:	7013      	strb	r3, [r2, #0]
 800198a:	e4e2      	b.n	8001352 <showTicker+0x2e>
 800198c:	2000059c 	.word	0x2000059c
 8001990:	20000598 	.word	0x20000598
 8001994:	20000597 	.word	0x20000597
 8001998:	200005a0 	.word	0x200005a0

0800199c <resetTicker>:
 800199c:	2200      	movs	r2, #0
 800199e:	b538      	push	{r3, r4, r5, lr}
 80019a0:	4b1f      	ldr	r3, [pc, #124]	; (8001a20 <resetTicker+0x84>)
 80019a2:	4c20      	ldr	r4, [pc, #128]	; (8001a24 <resetTicker+0x88>)
 80019a4:	e9c3 2200 	strd	r2, r2, [r3]
 80019a8:	e9c3 2202 	strd	r2, r2, [r3, #8]
 80019ac:	e9c3 2204 	strd	r2, r2, [r3, #16]
 80019b0:	e9c3 2206 	strd	r2, r2, [r3, #24]
 80019b4:	e9c3 2208 	strd	r2, r2, [r3, #32]
 80019b8:	e9c3 220a 	strd	r2, r2, [r3, #40]	; 0x28
 80019bc:	e9c3 220c 	strd	r2, r2, [r3, #48]	; 0x30
 80019c0:	e9c3 220e 	strd	r2, r2, [r3, #56]	; 0x38
 80019c4:	e9c3 2210 	strd	r2, r2, [r3, #64]	; 0x40
 80019c8:	e9c3 2212 	strd	r2, r2, [r3, #72]	; 0x48
 80019cc:	e9c3 2214 	strd	r2, r2, [r3, #80]	; 0x50
 80019d0:	e9c3 2216 	strd	r2, r2, [r3, #88]	; 0x58
 80019d4:	e9c3 2218 	strd	r2, r2, [r3, #96]	; 0x60
 80019d8:	e9c3 221a 	strd	r2, r2, [r3, #104]	; 0x68
 80019dc:	e9c3 221c 	strd	r2, r2, [r3, #112]	; 0x70
 80019e0:	f504 6599 	add.w	r5, r4, #1224	; 0x4c8
 80019e4:	2299      	movs	r2, #153	; 0x99
 80019e6:	4620      	mov	r0, r4
 80019e8:	2100      	movs	r1, #0
 80019ea:	4414      	add	r4, r2
 80019ec:	f003 faf7 	bl	8004fde <memset>
 80019f0:	42ac      	cmp	r4, r5
 80019f2:	d1f7      	bne.n	80019e4 <resetTicker+0x48>
 80019f4:	2300      	movs	r3, #0
 80019f6:	22ff      	movs	r2, #255	; 0xff
 80019f8:	2001      	movs	r0, #1
 80019fa:	490b      	ldr	r1, [pc, #44]	; (8001a28 <resetTicker+0x8c>)
 80019fc:	4d0b      	ldr	r5, [pc, #44]	; (8001a2c <resetTicker+0x90>)
 80019fe:	600b      	str	r3, [r1, #0]
 8001a00:	4c0b      	ldr	r4, [pc, #44]	; (8001a30 <resetTicker+0x94>)
 8001a02:	490c      	ldr	r1, [pc, #48]	; (8001a34 <resetTicker+0x98>)
 8001a04:	702b      	strb	r3, [r5, #0]
 8001a06:	7023      	strb	r3, [r4, #0]
 8001a08:	800b      	strh	r3, [r1, #0]
 8001a0a:	708b      	strb	r3, [r1, #2]
 8001a0c:	4d0a      	ldr	r5, [pc, #40]	; (8001a38 <resetTicker+0x9c>)
 8001a0e:	4c0b      	ldr	r4, [pc, #44]	; (8001a3c <resetTicker+0xa0>)
 8001a10:	490b      	ldr	r1, [pc, #44]	; (8001a40 <resetTicker+0xa4>)
 8001a12:	4b0c      	ldr	r3, [pc, #48]	; (8001a44 <resetTicker+0xa8>)
 8001a14:	702a      	strb	r2, [r5, #0]
 8001a16:	7022      	strb	r2, [r4, #0]
 8001a18:	700a      	strb	r2, [r1, #0]
 8001a1a:	7018      	strb	r0, [r3, #0]
 8001a1c:	bd38      	pop	{r3, r4, r5, pc}
 8001a1e:	bf00      	nop
 8001a20:	20000048 	.word	0x20000048
 8001a24:	200000c0 	.word	0x200000c0
 8001a28:	200005a0 	.word	0x200005a0
 8001a2c:	20000598 	.word	0x20000598
 8001a30:	20000597 	.word	0x20000597
 8001a34:	2000059c 	.word	0x2000059c
 8001a38:	20000006 	.word	0x20000006
 8001a3c:	20000007 	.word	0x20000007
 8001a40:	20000008 	.word	0x20000008
 8001a44:	20000005 	.word	0x20000005

08001a48 <temperatureDs3231>:
 8001a48:	b5f0      	push	{r4, r5, r6, r7, lr}
 8001a4a:	4b14      	ldr	r3, [pc, #80]	; (8001a9c <temperatureDs3231+0x54>)
 8001a4c:	2640      	movs	r6, #64	; 0x40
 8001a4e:	781b      	ldrb	r3, [r3, #0]
 8001a50:	25d0      	movs	r5, #208	; 0xd0
 8001a52:	2b00      	cmp	r3, #0
 8001a54:	bf0c      	ite	eq
 8001a56:	272b      	moveq	r7, #43	; 0x2b
 8001a58:	272d      	movne	r7, #45	; 0x2d
 8001a5a:	24a1      	movs	r4, #161	; 0xa1
 8001a5c:	2000      	movs	r0, #0
 8001a5e:	4a10      	ldr	r2, [pc, #64]	; (8001aa0 <temperatureDs3231+0x58>)
 8001a60:	4b10      	ldr	r3, [pc, #64]	; (8001aa4 <temperatureDs3231+0x5c>)
 8001a62:	7811      	ldrb	r1, [r2, #0]
 8001a64:	fba3 c201 	umull	ip, r2, r3, r1
 8001a68:	08d2      	lsrs	r2, r2, #3
 8001a6a:	fa5f fc82 	uxtb.w	ip, r2
 8001a6e:	fba3 e30c 	umull	lr, r3, r3, ip
 8001a72:	08db      	lsrs	r3, r3, #3
 8001a74:	eb02 0282 	add.w	r2, r2, r2, lsl #2
 8001a78:	eb03 0383 	add.w	r3, r3, r3, lsl #2
 8001a7c:	eba1 0142 	sub.w	r1, r1, r2, lsl #1
 8001a80:	ebac 0343 	sub.w	r3, ip, r3, lsl #1
 8001a84:	4a08      	ldr	r2, [pc, #32]	; (8001aa8 <temperatureDs3231+0x60>)
 8001a86:	3330      	adds	r3, #48	; 0x30
 8001a88:	3130      	adds	r1, #48	; 0x30
 8001a8a:	7053      	strb	r3, [r2, #1]
 8001a8c:	7091      	strb	r1, [r2, #2]
 8001a8e:	7017      	strb	r7, [r2, #0]
 8001a90:	70d6      	strb	r6, [r2, #3]
 8001a92:	7115      	strb	r5, [r2, #4]
 8001a94:	7154      	strb	r4, [r2, #5]
 8001a96:	7190      	strb	r0, [r2, #6]
 8001a98:	bdf0      	pop	{r4, r5, r6, r7, pc}
 8001a9a:	bf00      	nop
 8001a9c:	200005af 	.word	0x200005af
 8001aa0:	200005ae 	.word	0x200005ae
 8001aa4:	cccccccd 	.word	0xcccccccd
 8001aa8:	200006f0 	.word	0x200006f0

08001aac <setTime>:
 8001aac:	e92d 4ff0 	stmdb	sp!, {r4, r5, r6, r7, r8, r9, sl, fp, lr}
 8001ab0:	f04f 0a00 	mov.w	sl, #0
 8001ab4:	4b48      	ldr	r3, [pc, #288]	; (8001bd8 <setTime+0x12c>)
 8001ab6:	4a49      	ldr	r2, [pc, #292]	; (8001bdc <setTime+0x130>)
 8001ab8:	781b      	ldrb	r3, [r3, #0]
 8001aba:	4849      	ldr	r0, [pc, #292]	; (8001be0 <setTime+0x134>)
 8001abc:	4949      	ldr	r1, [pc, #292]	; (8001be4 <setTime+0x138>)
 8001abe:	7805      	ldrb	r5, [r0, #0]
 8001ac0:	fba2 0603 	umull	r0, r6, r2, r3
 8001ac4:	08f6      	lsrs	r6, r6, #3
 8001ac6:	eb06 0e86 	add.w	lr, r6, r6, lsl #2
 8001aca:	eba3 034e 	sub.w	r3, r3, lr, lsl #1
 8001ace:	fba2 e905 	umull	lr, r9, r2, r5
 8001ad2:	f891 c000 	ldrb.w	ip, [r1]
 8001ad6:	4944      	ldr	r1, [pc, #272]	; (8001be8 <setTime+0x13c>)
 8001ad8:	fba2 e80c 	umull	lr, r8, r2, ip
 8001adc:	780f      	ldrb	r7, [r1, #0]
 8001ade:	ea43 1606 	orr.w	r6, r3, r6, lsl #4
 8001ae2:	4942      	ldr	r1, [pc, #264]	; (8001bec <setTime+0x140>)
 8001ae4:	4b42      	ldr	r3, [pc, #264]	; (8001bf0 <setTime+0x144>)
 8001ae6:	ea4f 0bd9 	mov.w	fp, r9, lsr #3
 8001aea:	eb0b 098b 	add.w	r9, fp, fp, lsl #2
 8001aee:	780c      	ldrb	r4, [r1, #0]
 8001af0:	705e      	strb	r6, [r3, #1]
 8001af2:	eba5 0549 	sub.w	r5, r5, r9, lsl #1
 8001af6:	fba2 6e07 	umull	r6, lr, r2, r7
 8001afa:	493e      	ldr	r1, [pc, #248]	; (8001bf4 <setTime+0x148>)
 8001afc:	ea45 190b 	orr.w	r9, r5, fp, lsl #4
 8001b00:	ea4f 08d8 	mov.w	r8, r8, lsr #3
 8001b04:	7808      	ldrb	r0, [r1, #0]
 8001b06:	f883 9002 	strb.w	r9, [r3, #2]
 8001b0a:	493b      	ldr	r1, [pc, #236]	; (8001bf8 <setTime+0x14c>)
 8001b0c:	eb08 0988 	add.w	r9, r8, r8, lsl #2
 8001b10:	fba2 5604 	umull	r5, r6, r2, r4
 8001b14:	ebac 0c49 	sub.w	ip, ip, r9, lsl #1
 8001b18:	7809      	ldrb	r1, [r1, #0]
 8001b1a:	ea4f 0ede 	mov.w	lr, lr, lsr #3
 8001b1e:	ea4c 1c08 	orr.w	ip, ip, r8, lsl #4
 8001b22:	f883 a000 	strb.w	sl, [r3]
 8001b26:	f883 c003 	strb.w	ip, [r3, #3]
 8001b2a:	fba2 a500 	umull	sl, r5, r2, r0
 8001b2e:	eb0e 0c8e 	add.w	ip, lr, lr, lsl #2
 8001b32:	fba2 a201 	umull	sl, r2, r2, r1
 8001b36:	eba7 074c 	sub.w	r7, r7, ip, lsl #1
 8001b3a:	ea47 170e 	orr.w	r7, r7, lr, lsl #4
 8001b3e:	08f6      	lsrs	r6, r6, #3
 8001b40:	711f      	strb	r7, [r3, #4]
 8001b42:	eb06 0786 	add.w	r7, r6, r6, lsl #2
 8001b46:	08ed      	lsrs	r5, r5, #3
 8001b48:	eba4 0447 	sub.w	r4, r4, r7, lsl #1
 8001b4c:	08d2      	lsrs	r2, r2, #3
 8001b4e:	ea44 1606 	orr.w	r6, r4, r6, lsl #4
 8001b52:	eb05 0485 	add.w	r4, r5, r5, lsl #2
 8001b56:	eba0 0044 	sub.w	r0, r0, r4, lsl #1
 8001b5a:	eb02 0482 	add.w	r4, r2, r2, lsl #2
 8001b5e:	b0ad      	sub	sp, #180	; 0xb4
 8001b60:	eba1 0144 	sub.w	r1, r1, r4, lsl #1
 8001b64:	ea41 1402 	orr.w	r4, r1, r2, lsl #4
 8001b68:	ea40 1505 	orr.w	r5, r0, r5, lsl #4
 8001b6c:	2254      	movs	r2, #84	; 0x54
 8001b6e:	a802      	add	r0, sp, #8
 8001b70:	4922      	ldr	r1, [pc, #136]	; (8001bfc <setTime+0x150>)
 8001b72:	719d      	strb	r5, [r3, #6]
 8001b74:	71dc      	strb	r4, [r3, #7]
 8001b76:	715e      	strb	r6, [r3, #5]
 8001b78:	461c      	mov	r4, r3
 8001b7a:	f44f 757a 	mov.w	r5, #1000	; 0x3e8
 8001b7e:	f003 fa23 	bl	8004fc8 <memcpy>
 8001b82:	e002      	b.n	8001b8a <setTime+0xde>
 8001b84:	a802      	add	r0, sp, #8
 8001b86:	f002 fa5d 	bl	8004044 <HAL_I2C_GetError>
 8001b8a:	9500      	str	r5, [sp, #0]
 8001b8c:	2301      	movs	r3, #1
 8001b8e:	4622      	mov	r2, r4
 8001b90:	21d0      	movs	r1, #208	; 0xd0
 8001b92:	a802      	add	r0, sp, #8
 8001b94:	f000 ff68 	bl	8002a68 <HAL_I2C_Master_Transmit>
 8001b98:	2800      	cmp	r0, #0
 8001b9a:	d1f3      	bne.n	8001b84 <setTime+0xd8>
 8001b9c:	4c17      	ldr	r4, [pc, #92]	; (8001bfc <setTime+0x150>)
 8001b9e:	4620      	mov	r0, r4
 8001ba0:	f002 fa4c 	bl	800403c <HAL_I2C_GetState>
 8001ba4:	2820      	cmp	r0, #32
 8001ba6:	d1fa      	bne.n	8001b9e <setTime+0xf2>
 8001ba8:	a817      	add	r0, sp, #92	; 0x5c
 8001baa:	2254      	movs	r2, #84	; 0x54
 8001bac:	4913      	ldr	r1, [pc, #76]	; (8001bfc <setTime+0x150>)
 8001bae:	f003 fa0b 	bl	8004fc8 <memcpy>
 8001bb2:	f44f 757a 	mov.w	r5, #1000	; 0x3e8
 8001bb6:	4c0e      	ldr	r4, [pc, #56]	; (8001bf0 <setTime+0x144>)
 8001bb8:	e002      	b.n	8001bc0 <setTime+0x114>
 8001bba:	a817      	add	r0, sp, #92	; 0x5c
 8001bbc:	f002 fa42 	bl	8004044 <HAL_I2C_GetError>
 8001bc0:	9500      	str	r5, [sp, #0]
 8001bc2:	2308      	movs	r3, #8
 8001bc4:	4622      	mov	r2, r4
 8001bc6:	21d0      	movs	r1, #208	; 0xd0
 8001bc8:	a817      	add	r0, sp, #92	; 0x5c
 8001bca:	f000 ff4d 	bl	8002a68 <HAL_I2C_Master_Transmit>
 8001bce:	2800      	cmp	r0, #0
 8001bd0:	d1f3      	bne.n	8001bba <setTime+0x10e>
 8001bd2:	b02d      	add	sp, #180	; 0xb4
 8001bd4:	e8bd 8ff0 	ldmia.w	sp!, {r4, r5, r6, r7, r8, r9, sl, fp, pc}
 8001bd8:	200005ab 	.word	0x200005ab
 8001bdc:	cccccccd 	.word	0xcccccccd
 8001be0:	200005a8 	.word	0x200005a8
 8001be4:	200005a7 	.word	0x200005a7
 8001be8:	200005a6 	.word	0x200005a6
 8001bec:	200005a5 	.word	0x200005a5
 8001bf0:	200006f8 	.word	0x200006f8
 8001bf4:	200005a9 	.word	0x200005a9
 8001bf8:	200005b0 	.word	0x200005b0
 8001bfc:	20000610 	.word	0x20000610

08001c00 <getRTC>:
 8001c00:	2300      	movs	r3, #0
 8001c02:	b5f0      	push	{r4, r5, r6, r7, lr}
 8001c04:	4c43      	ldr	r4, [pc, #268]	; (8001d14 <getRTC+0x114>)
 8001c06:	b0ad      	sub	sp, #180	; 0xb4
 8001c08:	a802      	add	r0, sp, #8
 8001c0a:	2254      	movs	r2, #84	; 0x54
 8001c0c:	4942      	ldr	r1, [pc, #264]	; (8001d18 <getRTC+0x118>)
 8001c0e:	7023      	strb	r3, [r4, #0]
 8001c10:	4626      	mov	r6, r4
 8001c12:	f003 f9d9 	bl	8004fc8 <memcpy>
 8001c16:	f44f 757a 	mov.w	r5, #1000	; 0x3e8
 8001c1a:	e002      	b.n	8001c22 <getRTC+0x22>
 8001c1c:	a802      	add	r0, sp, #8
 8001c1e:	f002 fa11 	bl	8004044 <HAL_I2C_GetError>
 8001c22:	9500      	str	r5, [sp, #0]
 8001c24:	2301      	movs	r3, #1
 8001c26:	4632      	mov	r2, r6
 8001c28:	21d0      	movs	r1, #208	; 0xd0
 8001c2a:	a802      	add	r0, sp, #8
 8001c2c:	f000 ff1c 	bl	8002a68 <HAL_I2C_Master_Transmit>
 8001c30:	2800      	cmp	r0, #0
 8001c32:	d1f3      	bne.n	8001c1c <getRTC+0x1c>
 8001c34:	4d38      	ldr	r5, [pc, #224]	; (8001d18 <getRTC+0x118>)
 8001c36:	4628      	mov	r0, r5
 8001c38:	f002 fa00 	bl	800403c <HAL_I2C_GetState>
 8001c3c:	2820      	cmp	r0, #32
 8001c3e:	d1fa      	bne.n	8001c36 <getRTC+0x36>
 8001c40:	a817      	add	r0, sp, #92	; 0x5c
 8001c42:	2254      	movs	r2, #84	; 0x54
 8001c44:	4934      	ldr	r1, [pc, #208]	; (8001d18 <getRTC+0x118>)
 8001c46:	f003 f9bf 	bl	8004fc8 <memcpy>
 8001c4a:	f44f 767a 	mov.w	r6, #1000	; 0x3e8
 8001c4e:	4d31      	ldr	r5, [pc, #196]	; (8001d14 <getRTC+0x114>)
 8001c50:	e002      	b.n	8001c58 <getRTC+0x58>
 8001c52:	a817      	add	r0, sp, #92	; 0x5c
 8001c54:	f002 f9f6 	bl	8004044 <HAL_I2C_GetError>
 8001c58:	9600      	str	r6, [sp, #0]
 8001c5a:	2312      	movs	r3, #18
 8001c5c:	462a      	mov	r2, r5
 8001c5e:	21d0      	movs	r1, #208	; 0xd0
 8001c60:	a817      	add	r0, sp, #92	; 0x5c
 8001c62:	f001 f86f 	bl	8002d44 <HAL_I2C_Master_Receive>
 8001c66:	2800      	cmp	r0, #0
 8001c68:	d1f3      	bne.n	8001c52 <getRTC+0x52>
 8001c6a:	7823      	ldrb	r3, [r4, #0]
 8001c6c:	7865      	ldrb	r5, [r4, #1]
 8001c6e:	091f      	lsrs	r7, r3, #4
 8001c70:	482a      	ldr	r0, [pc, #168]	; (8001d1c <getRTC+0x11c>)
 8001c72:	f003 030f 	and.w	r3, r3, #15
 8001c76:	eb07 0787 	add.w	r7, r7, r7, lsl #2
 8001c7a:	eb03 0747 	add.w	r7, r3, r7, lsl #1
 8001c7e:	7007      	strb	r7, [r0, #0]
 8001c80:	0928      	lsrs	r0, r5, #4
 8001c82:	f894 c002 	ldrb.w	ip, [r4, #2]
 8001c86:	eb00 0080 	add.w	r0, r0, r0, lsl #2
 8001c8a:	f005 050f 	and.w	r5, r5, #15
 8001c8e:	eb05 0540 	add.w	r5, r5, r0, lsl #1
 8001c92:	4823      	ldr	r0, [pc, #140]	; (8001d20 <getRTC+0x120>)
 8001c94:	f894 e003 	ldrb.w	lr, [r4, #3]
 8001c98:	7921      	ldrb	r1, [r4, #4]
 8001c9a:	7962      	ldrb	r2, [r4, #5]
 8001c9c:	79a3      	ldrb	r3, [r4, #6]
 8001c9e:	7c66      	ldrb	r6, [r4, #17]
 8001ca0:	ea4f 141c 	mov.w	r4, ip, lsr #4
 8001ca4:	7005      	strb	r5, [r0, #0]
 8001ca6:	4f1f      	ldr	r7, [pc, #124]	; (8001d24 <getRTC+0x124>)
 8001ca8:	eb04 0084 	add.w	r0, r4, r4, lsl #2
 8001cac:	f00c 040f 	and.w	r4, ip, #15
 8001cb0:	eb04 0440 	add.w	r4, r4, r0, lsl #1
 8001cb4:	703c      	strb	r4, [r7, #0]
 8001cb6:	090c      	lsrs	r4, r1, #4
 8001cb8:	eb04 0484 	add.w	r4, r4, r4, lsl #2
 8001cbc:	f001 010f 	and.w	r1, r1, #15
 8001cc0:	ea4f 101e 	mov.w	r0, lr, lsr #4
 8001cc4:	eb01 0144 	add.w	r1, r1, r4, lsl #1
 8001cc8:	0914      	lsrs	r4, r2, #4
 8001cca:	eb00 0580 	add.w	r5, r0, r0, lsl #2
 8001cce:	eb04 0484 	add.w	r4, r4, r4, lsl #2
 8001cd2:	f00e 000f 	and.w	r0, lr, #15
 8001cd6:	f002 020f 	and.w	r2, r2, #15
 8001cda:	eb00 0045 	add.w	r0, r0, r5, lsl #1
 8001cde:	eb02 0244 	add.w	r2, r2, r4, lsl #1
 8001ce2:	4d11      	ldr	r5, [pc, #68]	; (8001d28 <getRTC+0x128>)
 8001ce4:	091c      	lsrs	r4, r3, #4
 8001ce6:	eb04 0484 	add.w	r4, r4, r4, lsl #2
 8001cea:	f003 030f 	and.w	r3, r3, #15
 8001cee:	eb03 0344 	add.w	r3, r3, r4, lsl #1
 8001cf2:	7028      	strb	r0, [r5, #0]
 8001cf4:	4c0d      	ldr	r4, [pc, #52]	; (8001d2c <getRTC+0x12c>)
 8001cf6:	480e      	ldr	r0, [pc, #56]	; (8001d30 <getRTC+0x130>)
 8001cf8:	7021      	strb	r1, [r4, #0]
 8001cfa:	7002      	strb	r2, [r0, #0]
 8001cfc:	4c0d      	ldr	r4, [pc, #52]	; (8001d34 <getRTC+0x134>)
 8001cfe:	490e      	ldr	r1, [pc, #56]	; (8001d38 <getRTC+0x138>)
 8001d00:	4a0e      	ldr	r2, [pc, #56]	; (8001d3c <getRTC+0x13c>)
 8001d02:	f006 007f 	and.w	r0, r6, #127	; 0x7f
 8001d06:	f026 067f 	bic.w	r6, r6, #127	; 0x7f
 8001d0a:	7023      	strb	r3, [r4, #0]
 8001d0c:	7008      	strb	r0, [r1, #0]
 8001d0e:	7016      	strb	r6, [r2, #0]
 8001d10:	b02d      	add	sp, #180	; 0xb4
 8001d12:	bdf0      	pop	{r4, r5, r6, r7, pc}
 8001d14:	200006f8 	.word	0x200006f8
 8001d18:	20000610 	.word	0x20000610
 8001d1c:	200005ab 	.word	0x200005ab
 8001d20:	200005a8 	.word	0x200005a8
 8001d24:	200005a7 	.word	0x200005a7
 8001d28:	200005a6 	.word	0x200005a6
 8001d2c:	200005a5 	.word	0x200005a5
 8001d30:	200005a9 	.word	0x200005a9
 8001d34:	200005b0 	.word	0x200005b0
 8001d38:	200005ae 	.word	0x200005ae
 8001d3c:	200005af 	.word	0x200005af

08001d40 <getTimeMi>:
 8001d40:	b430      	push	{r4, r5}
 8001d42:	2500      	movs	r5, #0
 8001d44:	4a0c      	ldr	r2, [pc, #48]	; (8001d78 <getTimeMi+0x38>)
 8001d46:	4b0d      	ldr	r3, [pc, #52]	; (8001d7c <getTimeMi+0x3c>)
 8001d48:	7811      	ldrb	r1, [r2, #0]
 8001d4a:	480d      	ldr	r0, [pc, #52]	; (8001d80 <getTimeMi+0x40>)
 8001d4c:	fba3 4201 	umull	r4, r2, r3, r1
 8001d50:	08d2      	lsrs	r2, r2, #3
 8001d52:	b2d4      	uxtb	r4, r2
 8001d54:	fba3 c304 	umull	ip, r3, r3, r4
 8001d58:	08db      	lsrs	r3, r3, #3
 8001d5a:	eb02 0282 	add.w	r2, r2, r2, lsl #2
 8001d5e:	eb03 0383 	add.w	r3, r3, r3, lsl #2
 8001d62:	eba4 0343 	sub.w	r3, r4, r3, lsl #1
 8001d66:	eba1 0242 	sub.w	r2, r1, r2, lsl #1
 8001d6a:	3330      	adds	r3, #48	; 0x30
 8001d6c:	3230      	adds	r2, #48	; 0x30
 8001d6e:	7003      	strb	r3, [r0, #0]
 8001d70:	7042      	strb	r2, [r0, #1]
 8001d72:	7085      	strb	r5, [r0, #2]
 8001d74:	bc30      	pop	{r4, r5}
 8001d76:	4770      	bx	lr
 8001d78:	200005a8 	.word	0x200005a8
 8001d7c:	cccccccd 	.word	0xcccccccd
 8001d80:	200006e4 	.word	0x200006e4

08001d84 <getTimeH>:
 8001d84:	b430      	push	{r4, r5}
 8001d86:	2500      	movs	r5, #0
 8001d88:	4a0c      	ldr	r2, [pc, #48]	; (8001dbc <getTimeH+0x38>)
 8001d8a:	4b0d      	ldr	r3, [pc, #52]	; (8001dc0 <getTimeH+0x3c>)
 8001d8c:	7811      	ldrb	r1, [r2, #0]
 8001d8e:	480d      	ldr	r0, [pc, #52]	; (8001dc4 <getTimeH+0x40>)
 8001d90:	fba3 4201 	umull	r4, r2, r3, r1
 8001d94:	08d2      	lsrs	r2, r2, #3
 8001d96:	b2d4      	uxtb	r4, r2
 8001d98:	fba3 c304 	umull	ip, r3, r3, r4
 8001d9c:	08db      	lsrs	r3, r3, #3
 8001d9e:	eb02 0282 	add.w	r2, r2, r2, lsl #2
 8001da2:	eb03 0383 	add.w	r3, r3, r3, lsl #2
 8001da6:	eba4 0343 	sub.w	r3, r4, r3, lsl #1
 8001daa:	eba1 0242 	sub.w	r2, r1, r2, lsl #1
 8001dae:	3330      	adds	r3, #48	; 0x30
 8001db0:	3230      	adds	r2, #48	; 0x30
 8001db2:	7003      	strb	r3, [r0, #0]
 8001db4:	7042      	strb	r2, [r0, #1]
 8001db6:	7085      	strb	r5, [r0, #2]
 8001db8:	bc30      	pop	{r4, r5}
 8001dba:	4770      	bx	lr
 8001dbc:	200005a7 	.word	0x200005a7
 8001dc0:	cccccccd 	.word	0xcccccccd
 8001dc4:	200006e4 	.word	0x200006e4

08001dc8 <getTimeDW>:
 8001dc8:	b430      	push	{r4, r5}
 8001dca:	2500      	movs	r5, #0
 8001dcc:	4a0c      	ldr	r2, [pc, #48]	; (8001e00 <getTimeDW+0x38>)
 8001dce:	4b0d      	ldr	r3, [pc, #52]	; (8001e04 <getTimeDW+0x3c>)
 8001dd0:	7811      	ldrb	r1, [r2, #0]
 8001dd2:	480d      	ldr	r0, [pc, #52]	; (8001e08 <getTimeDW+0x40>)
 8001dd4:	fba3 4201 	umull	r4, r2, r3, r1
 8001dd8:	08d2      	lsrs	r2, r2, #3
 8001dda:	b2d4      	uxtb	r4, r2
 8001ddc:	fba3 c304 	umull	ip, r3, r3, r4
 8001de0:	08db      	lsrs	r3, r3, #3
 8001de2:	eb02 0282 	add.w	r2, r2, r2, lsl #2
 8001de6:	eb03 0383 	add.w	r3, r3, r3, lsl #2
 8001dea:	eba4 0343 	sub.w	r3, r4, r3, lsl #1
 8001dee:	eba1 0242 	sub.w	r2, r1, r2, lsl #1
 8001df2:	3330      	adds	r3, #48	; 0x30
 8001df4:	3230      	adds	r2, #48	; 0x30
 8001df6:	7003      	strb	r3, [r0, #0]
 8001df8:	7042      	strb	r2, [r0, #1]
 8001dfa:	7085      	strb	r5, [r0, #2]
 8001dfc:	bc30      	pop	{r4, r5}
 8001dfe:	4770      	bx	lr
 8001e00:	200005a6 	.word	0x200005a6
 8001e04:	cccccccd 	.word	0xcccccccd
 8001e08:	200006e4 	.word	0x200006e4

08001e0c <getTimeDayW>:
 8001e0c:	4b17      	ldr	r3, [pc, #92]	; (8001e6c <getTimeDayW+0x60>)
 8001e0e:	781b      	ldrb	r3, [r3, #0]
 8001e10:	3b01      	subs	r3, #1
 8001e12:	2b06      	cmp	r3, #6
 8001e14:	d828      	bhi.n	8001e68 <getTimeDayW+0x5c>
 8001e16:	e8df f003 	tbb	[pc, r3]
 8001e1a:	0e09      	.short	0x0e09
 8001e1c:	221d1813 	.word	0x221d1813
 8001e20:	04          	.byte	0x04
 8001e21:	00          	.byte	0x00
 8001e22:	2207      	movs	r2, #7
 8001e24:	4b12      	ldr	r3, [pc, #72]	; (8001e70 <getTimeDayW+0x64>)
 8001e26:	4813      	ldr	r0, [pc, #76]	; (8001e74 <getTimeDayW+0x68>)
 8001e28:	701a      	strb	r2, [r3, #0]
 8001e2a:	4770      	bx	lr
 8001e2c:	220b      	movs	r2, #11
 8001e2e:	4b10      	ldr	r3, [pc, #64]	; (8001e70 <getTimeDayW+0x64>)
 8001e30:	4811      	ldr	r0, [pc, #68]	; (8001e78 <getTimeDayW+0x6c>)
 8001e32:	701a      	strb	r2, [r3, #0]
 8001e34:	4770      	bx	lr
 8001e36:	220b      	movs	r2, #11
 8001e38:	4b0d      	ldr	r3, [pc, #52]	; (8001e70 <getTimeDayW+0x64>)
 8001e3a:	4810      	ldr	r0, [pc, #64]	; (8001e7c <getTimeDayW+0x70>)
 8001e3c:	701a      	strb	r2, [r3, #0]
 8001e3e:	4770      	bx	lr
 8001e40:	2207      	movs	r2, #7
 8001e42:	4b0b      	ldr	r3, [pc, #44]	; (8001e70 <getTimeDayW+0x64>)
 8001e44:	480e      	ldr	r0, [pc, #56]	; (8001e80 <getTimeDayW+0x74>)
 8001e46:	701a      	strb	r2, [r3, #0]
 8001e48:	4770      	bx	lr
 8001e4a:	2205      	movs	r2, #5
 8001e4c:	4b08      	ldr	r3, [pc, #32]	; (8001e70 <getTimeDayW+0x64>)
 8001e4e:	480d      	ldr	r0, [pc, #52]	; (8001e84 <getTimeDayW+0x78>)
 8001e50:	701a      	strb	r2, [r3, #0]
 8001e52:	4770      	bx	lr
 8001e54:	2207      	movs	r2, #7
 8001e56:	4b06      	ldr	r3, [pc, #24]	; (8001e70 <getTimeDayW+0x64>)
 8001e58:	480b      	ldr	r0, [pc, #44]	; (8001e88 <getTimeDayW+0x7c>)
 8001e5a:	701a      	strb	r2, [r3, #0]
 8001e5c:	4770      	bx	lr
 8001e5e:	2207      	movs	r2, #7
 8001e60:	4b03      	ldr	r3, [pc, #12]	; (8001e70 <getTimeDayW+0x64>)
 8001e62:	480a      	ldr	r0, [pc, #40]	; (8001e8c <getTimeDayW+0x80>)
 8001e64:	701a      	strb	r2, [r3, #0]
 8001e66:	4770      	bx	lr
 8001e68:	2000      	movs	r0, #0
 8001e6a:	4770      	bx	lr
 8001e6c:	200005a6 	.word	0x200005a6
 8001e70:	200005ac 	.word	0x200005ac
 8001e74:	08005230 	.word	0x08005230
 8001e78:	080051c4 	.word	0x080051c4
 8001e7c:	080051dc 	.word	0x080051dc
 8001e80:	080051f4 	.word	0x080051f4
 8001e84:	08005204 	.word	0x08005204
 8001e88:	08005210 	.word	0x08005210
 8001e8c:	08005220 	.word	0x08005220

08001e90 <getTimeDM>:
 8001e90:	b430      	push	{r4, r5}
 8001e92:	2500      	movs	r5, #0
 8001e94:	4a0c      	ldr	r2, [pc, #48]	; (8001ec8 <getTimeDM+0x38>)
 8001e96:	4b0d      	ldr	r3, [pc, #52]	; (8001ecc <getTimeDM+0x3c>)
 8001e98:	7811      	ldrb	r1, [r2, #0]
 8001e9a:	480d      	ldr	r0, [pc, #52]	; (8001ed0 <getTimeDM+0x40>)
 8001e9c:	fba3 4201 	umull	r4, r2, r3, r1
 8001ea0:	08d2      	lsrs	r2, r2, #3
 8001ea2:	b2d4      	uxtb	r4, r2
 8001ea4:	fba3 c304 	umull	ip, r3, r3, r4
 8001ea8:	08db      	lsrs	r3, r3, #3
 8001eaa:	eb02 0282 	add.w	r2, r2, r2, lsl #2
 8001eae:	eb03 0383 	add.w	r3, r3, r3, lsl #2
 8001eb2:	eba4 0343 	sub.w	r3, r4, r3, lsl #1
 8001eb6:	eba1 0242 	sub.w	r2, r1, r2, lsl #1
 8001eba:	3330      	adds	r3, #48	; 0x30
 8001ebc:	3230      	adds	r2, #48	; 0x30
 8001ebe:	7003      	strb	r3, [r0, #0]
 8001ec0:	7042      	strb	r2, [r0, #1]
 8001ec2:	7085      	strb	r5, [r0, #2]
 8001ec4:	bc30      	pop	{r4, r5}
 8001ec6:	4770      	bx	lr
 8001ec8:	200005a5 	.word	0x200005a5
 8001ecc:	cccccccd 	.word	0xcccccccd
 8001ed0:	200006e4 	.word	0x200006e4

08001ed4 <getTimeMo>:
 8001ed4:	b430      	push	{r4, r5}
 8001ed6:	2500      	movs	r5, #0
 8001ed8:	4a0c      	ldr	r2, [pc, #48]	; (8001f0c <getTimeMo+0x38>)
 8001eda:	4b0d      	ldr	r3, [pc, #52]	; (8001f10 <getTimeMo+0x3c>)
 8001edc:	7811      	ldrb	r1, [r2, #0]
 8001ede:	480d      	ldr	r0, [pc, #52]	; (8001f14 <getTimeMo+0x40>)
 8001ee0:	fba3 4201 	umull	r4, r2, r3, r1
 8001ee4:	08d2      	lsrs	r2, r2, #3
 8001ee6:	b2d4      	uxtb	r4, r2
 8001ee8:	fba3 c304 	umull	ip, r3, r3, r4
 8001eec:	08db      	lsrs	r3, r3, #3
 8001eee:	eb02 0282 	add.w	r2, r2, r2, lsl #2
 8001ef2:	eb03 0383 	add.w	r3, r3, r3, lsl #2
 8001ef6:	eba4 0343 	sub.w	r3, r4, r3, lsl #1
 8001efa:	eba1 0242 	sub.w	r2, r1, r2, lsl #1
 8001efe:	3330      	adds	r3, #48	; 0x30
 8001f00:	3230      	adds	r2, #48	; 0x30
 8001f02:	7003      	strb	r3, [r0, #0]
 8001f04:	7042      	strb	r2, [r0, #1]
 8001f06:	7085      	strb	r5, [r0, #2]
 8001f08:	bc30      	pop	{r4, r5}
 8001f0a:	4770      	bx	lr
 8001f0c:	200005a9 	.word	0x200005a9
 8001f10:	cccccccd 	.word	0xcccccccd
 8001f14:	200006e4 	.word	0x200006e4

08001f18 <getTimeMounth>:
 8001f18:	4b25      	ldr	r3, [pc, #148]	; (8001fb0 <getTimeMounth+0x98>)
 8001f1a:	781b      	ldrb	r3, [r3, #0]
 8001f1c:	3b01      	subs	r3, #1
 8001f1e:	2b0b      	cmp	r3, #11
 8001f20:	d843      	bhi.n	8001faa <getTimeMounth+0x92>
 8001f22:	e8df f003 	tbb	[pc, r3]
 8001f26:	100b      	.short	0x100b
 8001f28:	241f1a15 	.word	0x241f1a15
 8001f2c:	38332e29 	.word	0x38332e29
 8001f30:	063d      	.short	0x063d
 8001f32:	2207      	movs	r2, #7
 8001f34:	4b1f      	ldr	r3, [pc, #124]	; (8001fb4 <getTimeMounth+0x9c>)
 8001f36:	4820      	ldr	r0, [pc, #128]	; (8001fb8 <getTimeMounth+0xa0>)
 8001f38:	701a      	strb	r2, [r3, #0]
 8001f3a:	4770      	bx	lr
 8001f3c:	2206      	movs	r2, #6
 8001f3e:	4b1d      	ldr	r3, [pc, #116]	; (8001fb4 <getTimeMounth+0x9c>)
 8001f40:	481e      	ldr	r0, [pc, #120]	; (8001fbc <getTimeMounth+0xa4>)
 8001f42:	701a      	strb	r2, [r3, #0]
 8001f44:	4770      	bx	lr
 8001f46:	2207      	movs	r2, #7
 8001f48:	4b1a      	ldr	r3, [pc, #104]	; (8001fb4 <getTimeMounth+0x9c>)
 8001f4a:	481d      	ldr	r0, [pc, #116]	; (8001fc0 <getTimeMounth+0xa8>)
 8001f4c:	701a      	strb	r2, [r3, #0]
 8001f4e:	4770      	bx	lr
 8001f50:	2204      	movs	r2, #4
 8001f52:	4b18      	ldr	r3, [pc, #96]	; (8001fb4 <getTimeMounth+0x9c>)
 8001f54:	481b      	ldr	r0, [pc, #108]	; (8001fc4 <getTimeMounth+0xac>)
 8001f56:	701a      	strb	r2, [r3, #0]
 8001f58:	4770      	bx	lr
 8001f5a:	2206      	movs	r2, #6
 8001f5c:	4b15      	ldr	r3, [pc, #84]	; (8001fb4 <getTimeMounth+0x9c>)
 8001f5e:	481a      	ldr	r0, [pc, #104]	; (8001fc8 <getTimeMounth+0xb0>)
 8001f60:	701a      	strb	r2, [r3, #0]
 8001f62:	4770      	bx	lr
 8001f64:	2203      	movs	r2, #3
 8001f66:	4b13      	ldr	r3, [pc, #76]	; (8001fb4 <getTimeMounth+0x9c>)
 8001f68:	4818      	ldr	r0, [pc, #96]	; (8001fcc <getTimeMounth+0xb4>)
 8001f6a:	701a      	strb	r2, [r3, #0]
 8001f6c:	4770      	bx	lr
 8001f6e:	2204      	movs	r2, #4
 8001f70:	4b10      	ldr	r3, [pc, #64]	; (8001fb4 <getTimeMounth+0x9c>)
 8001f72:	4817      	ldr	r0, [pc, #92]	; (8001fd0 <getTimeMounth+0xb8>)
 8001f74:	701a      	strb	r2, [r3, #0]
 8001f76:	4770      	bx	lr
 8001f78:	2204      	movs	r2, #4
 8001f7a:	4b0e      	ldr	r3, [pc, #56]	; (8001fb4 <getTimeMounth+0x9c>)
 8001f7c:	4815      	ldr	r0, [pc, #84]	; (8001fd4 <getTimeMounth+0xbc>)
 8001f7e:	701a      	strb	r2, [r3, #0]
 8001f80:	4770      	bx	lr
 8001f82:	2206      	movs	r2, #6
 8001f84:	4b0b      	ldr	r3, [pc, #44]	; (8001fb4 <getTimeMounth+0x9c>)
 8001f86:	4814      	ldr	r0, [pc, #80]	; (8001fd8 <getTimeMounth+0xc0>)
 8001f88:	701a      	strb	r2, [r3, #0]
 8001f8a:	4770      	bx	lr
 8001f8c:	2208      	movs	r2, #8
 8001f8e:	4b09      	ldr	r3, [pc, #36]	; (8001fb4 <getTimeMounth+0x9c>)
 8001f90:	4812      	ldr	r0, [pc, #72]	; (8001fdc <getTimeMounth+0xc4>)
 8001f92:	701a      	strb	r2, [r3, #0]
 8001f94:	4770      	bx	lr
 8001f96:	2207      	movs	r2, #7
 8001f98:	4b06      	ldr	r3, [pc, #24]	; (8001fb4 <getTimeMounth+0x9c>)
 8001f9a:	4811      	ldr	r0, [pc, #68]	; (8001fe0 <getTimeMounth+0xc8>)
 8001f9c:	701a      	strb	r2, [r3, #0]
 8001f9e:	4770      	bx	lr
 8001fa0:	2206      	movs	r2, #6
 8001fa2:	4b04      	ldr	r3, [pc, #16]	; (8001fb4 <getTimeMounth+0x9c>)
 8001fa4:	480f      	ldr	r0, [pc, #60]	; (8001fe4 <getTimeMounth+0xcc>)
 8001fa6:	701a      	strb	r2, [r3, #0]
 8001fa8:	4770      	bx	lr
 8001faa:	2000      	movs	r0, #0
 8001fac:	4770      	bx	lr
 8001fae:	bf00      	nop
 8001fb0:	200005a9 	.word	0x200005a9
 8001fb4:	200005ad 	.word	0x200005ad
 8001fb8:	080052e0 	.word	0x080052e0
 8001fbc:	08005240 	.word	0x08005240
 8001fc0:	08005250 	.word	0x08005250
 8001fc4:	08005260 	.word	0x08005260
 8001fc8:	0800526c 	.word	0x0800526c
 8001fcc:	0800527c 	.word	0x0800527c
 8001fd0:	08005284 	.word	0x08005284
 8001fd4:	08005290 	.word	0x08005290
 8001fd8:	0800529c 	.word	0x0800529c
 8001fdc:	080052ac 	.word	0x080052ac
 8001fe0:	080052c0 	.word	0x080052c0
 8001fe4:	080052d0 	.word	0x080052d0

08001fe8 <getTimeYe>:
 8001fe8:	b430      	push	{r4, r5}
 8001fea:	2500      	movs	r5, #0
 8001fec:	4a0c      	ldr	r2, [pc, #48]	; (8002020 <getTimeYe+0x38>)
 8001fee:	4b0d      	ldr	r3, [pc, #52]	; (8002024 <getTimeYe+0x3c>)
 8001ff0:	7811      	ldrb	r1, [r2, #0]
 8001ff2:	480d      	ldr	r0, [pc, #52]	; (8002028 <getTimeYe+0x40>)
 8001ff4:	fba3 4201 	umull	r4, r2, r3, r1
 8001ff8:	08d2      	lsrs	r2, r2, #3
 8001ffa:	b2d4      	uxtb	r4, r2
 8001ffc:	fba3 c304 	umull	ip, r3, r3, r4
 8002000:	08db      	lsrs	r3, r3, #3
 8002002:	eb02 0282 	add.w	r2, r2, r2, lsl #2
 8002006:	eb03 0383 	add.w	r3, r3, r3, lsl #2
 800200a:	eba4 0343 	sub.w	r3, r4, r3, lsl #1
 800200e:	eba1 0242 	sub.w	r2, r1, r2, lsl #1
 8002012:	3330      	adds	r3, #48	; 0x30
 8002014:	3230      	adds	r2, #48	; 0x30
 8002016:	7003      	strb	r3, [r0, #0]
 8002018:	7042      	strb	r2, [r0, #1]
 800201a:	7085      	strb	r5, [r0, #2]
 800201c:	bc30      	pop	{r4, r5}
 800201e:	4770      	bx	lr
 8002020:	200005b0 	.word	0x200005b0
 8002024:	cccccccd 	.word	0xcccccccd
 8002028:	200006e4 	.word	0x200006e4

0800202c <getTimeY>:
 800202c:	b470      	push	{r4, r5, r6}
 800202e:	2530      	movs	r5, #48	; 0x30
 8002030:	2632      	movs	r6, #50	; 0x32
 8002032:	2400      	movs	r4, #0
 8002034:	4a0d      	ldr	r2, [pc, #52]	; (800206c <getTimeY+0x40>)
 8002036:	4b0e      	ldr	r3, [pc, #56]	; (8002070 <getTimeY+0x44>)
 8002038:	7811      	ldrb	r1, [r2, #0]
 800203a:	fba3 0201 	umull	r0, r2, r3, r1
 800203e:	08d2      	lsrs	r2, r2, #3
 8002040:	b2d0      	uxtb	r0, r2
 8002042:	fba3 c300 	umull	ip, r3, r3, r0
 8002046:	08db      	lsrs	r3, r3, #3
 8002048:	eb02 0282 	add.w	r2, r2, r2, lsl #2
 800204c:	eb03 0383 	add.w	r3, r3, r3, lsl #2
 8002050:	eba1 0242 	sub.w	r2, r1, r2, lsl #1
 8002054:	eba0 0343 	sub.w	r3, r0, r3, lsl #1
 8002058:	4906      	ldr	r1, [pc, #24]	; (8002074 <getTimeY+0x48>)
 800205a:	442b      	add	r3, r5
 800205c:	442a      	add	r2, r5
 800205e:	708b      	strb	r3, [r1, #2]
 8002060:	70ca      	strb	r2, [r1, #3]
 8002062:	700e      	strb	r6, [r1, #0]
 8002064:	704d      	strb	r5, [r1, #1]
 8002066:	710c      	strb	r4, [r1, #4]
 8002068:	bc70      	pop	{r4, r5, r6}
 800206a:	4770      	bx	lr
 800206c:	200005b0 	.word	0x200005b0
 8002070:	cccccccd 	.word	0xcccccccd
 8002074:	200006e8 	.word	0x200006e8

08002078 <getSizeStringDay>:
 8002078:	4b01      	ldr	r3, [pc, #4]	; (8002080 <getSizeStringDay+0x8>)
 800207a:	7818      	ldrb	r0, [r3, #0]
 800207c:	4770      	bx	lr
 800207e:	bf00      	nop
 8002080:	200005ac 	.word	0x200005ac

08002084 <getSizeStringMounth>:
 8002084:	4b01      	ldr	r3, [pc, #4]	; (800208c <getSizeStringMounth+0x8>)
 8002086:	7818      	ldrb	r0, [r3, #0]
 8002088:	4770      	bx	lr
 800208a:	bf00      	nop
 800208c:	200005ad 	.word	0x200005ad

08002090 <automaticTimeTranslation>:
 8002090:	b510      	push	{r4, lr}
 8002092:	4b53      	ldr	r3, [pc, #332]	; (80021e0 <automaticTimeTranslation+0x150>)
 8002094:	781b      	ldrb	r3, [r3, #0]
 8002096:	2b0a      	cmp	r3, #10
 8002098:	d028      	beq.n	80020ec <automaticTimeTranslation+0x5c>
 800209a:	2b03      	cmp	r3, #3
 800209c:	d009      	beq.n	80020b2 <automaticTimeTranslation+0x22>
 800209e:	2b0b      	cmp	r3, #11
 80020a0:	f040 8090 	bne.w	80021c4 <automaticTimeTranslation+0x134>
 80020a4:	4b4f      	ldr	r3, [pc, #316]	; (80021e4 <automaticTimeTranslation+0x154>)
 80020a6:	781b      	ldrb	r3, [r3, #0]
 80020a8:	2b15      	cmp	r3, #21
 80020aa:	d043      	beq.n	8002134 <automaticTimeTranslation+0xa4>
 80020ac:	2b1b      	cmp	r3, #27
 80020ae:	d041      	beq.n	8002134 <automaticTimeTranslation+0xa4>
 80020b0:	bd10      	pop	{r4, pc}
 80020b2:	4b4c      	ldr	r3, [pc, #304]	; (80021e4 <automaticTimeTranslation+0x154>)
 80020b4:	781b      	ldrb	r3, [r3, #0]
 80020b6:	2b15      	cmp	r3, #21
 80020b8:	d046      	beq.n	8002148 <automaticTimeTranslation+0xb8>
 80020ba:	2b16      	cmp	r3, #22
 80020bc:	d04e      	beq.n	800215c <automaticTimeTranslation+0xcc>
 80020be:	2b17      	cmp	r3, #23
 80020c0:	d047      	beq.n	8002152 <automaticTimeTranslation+0xc2>
 80020c2:	2b19      	cmp	r3, #25
 80020c4:	d054      	beq.n	8002170 <automaticTimeTranslation+0xe0>
 80020c6:	2b1a      	cmp	r3, #26
 80020c8:	d077      	beq.n	80021ba <automaticTimeTranslation+0x12a>
 80020ca:	2b1b      	cmp	r3, #27
 80020cc:	d03c      	beq.n	8002148 <automaticTimeTranslation+0xb8>
 80020ce:	2b1c      	cmp	r3, #28
 80020d0:	d03f      	beq.n	8002152 <automaticTimeTranslation+0xc2>
 80020d2:	2b1d      	cmp	r3, #29
 80020d4:	d1ec      	bne.n	80020b0 <automaticTimeTranslation+0x20>
 80020d6:	4b44      	ldr	r3, [pc, #272]	; (80021e8 <automaticTimeTranslation+0x158>)
 80020d8:	781b      	ldrb	r3, [r3, #0]
 80020da:	2b1a      	cmp	r3, #26
 80020dc:	d1e8      	bne.n	80020b0 <automaticTimeTranslation+0x20>
 80020de:	4b43      	ldr	r3, [pc, #268]	; (80021ec <automaticTimeTranslation+0x15c>)
 80020e0:	781a      	ldrb	r2, [r3, #0]
 80020e2:	2a0a      	cmp	r2, #10
 80020e4:	d059      	beq.n	800219a <automaticTimeTranslation+0x10a>
 80020e6:	2a0b      	cmp	r2, #11
 80020e8:	d81b      	bhi.n	8002122 <automaticTimeTranslation+0x92>
 80020ea:	bd10      	pop	{r4, pc}
 80020ec:	4b3d      	ldr	r3, [pc, #244]	; (80021e4 <automaticTimeTranslation+0x154>)
 80020ee:	781b      	ldrb	r3, [r3, #0]
 80020f0:	2b14      	cmp	r3, #20
 80020f2:	d024      	beq.n	800213e <automaticTimeTranslation+0xae>
 80020f4:	2b16      	cmp	r3, #22
 80020f6:	d04b      	beq.n	8002190 <automaticTimeTranslation+0x100>
 80020f8:	2b17      	cmp	r3, #23
 80020fa:	d016      	beq.n	800212a <automaticTimeTranslation+0x9a>
 80020fc:	2b18      	cmp	r3, #24
 80020fe:	d032      	beq.n	8002166 <automaticTimeTranslation+0xd6>
 8002100:	2b19      	cmp	r3, #25
 8002102:	d055      	beq.n	80021b0 <automaticTimeTranslation+0x120>
 8002104:	2b1a      	cmp	r3, #26
 8002106:	d01a      	beq.n	800213e <automaticTimeTranslation+0xae>
 8002108:	2b1c      	cmp	r3, #28
 800210a:	d00e      	beq.n	800212a <automaticTimeTranslation+0x9a>
 800210c:	2b1d      	cmp	r3, #29
 800210e:	d1cf      	bne.n	80020b0 <automaticTimeTranslation+0x20>
 8002110:	4b35      	ldr	r3, [pc, #212]	; (80021e8 <automaticTimeTranslation+0x158>)
 8002112:	781b      	ldrb	r3, [r3, #0]
 8002114:	2b1d      	cmp	r3, #29
 8002116:	d1cb      	bne.n	80020b0 <automaticTimeTranslation+0x20>
 8002118:	4b34      	ldr	r3, [pc, #208]	; (80021ec <automaticTimeTranslation+0x15c>)
 800211a:	781a      	ldrb	r2, [r3, #0]
 800211c:	2a0b      	cmp	r2, #11
 800211e:	d02c      	beq.n	800217a <automaticTimeTranslation+0xea>
 8002120:	d9c6      	bls.n	80020b0 <automaticTimeTranslation+0x20>
 8002122:	2200      	movs	r2, #0
 8002124:	4b32      	ldr	r3, [pc, #200]	; (80021f0 <automaticTimeTranslation+0x160>)
 8002126:	701a      	strb	r2, [r3, #0]
 8002128:	bd10      	pop	{r4, pc}
 800212a:	4b2f      	ldr	r3, [pc, #188]	; (80021e8 <automaticTimeTranslation+0x158>)
 800212c:	781b      	ldrb	r3, [r3, #0]
 800212e:	2b1e      	cmp	r3, #30
 8002130:	d0f2      	beq.n	8002118 <automaticTimeTranslation+0x88>
 8002132:	bd10      	pop	{r4, pc}
 8002134:	4b2c      	ldr	r3, [pc, #176]	; (80021e8 <automaticTimeTranslation+0x158>)
 8002136:	781b      	ldrb	r3, [r3, #0]
 8002138:	2b01      	cmp	r3, #1
 800213a:	d0ed      	beq.n	8002118 <automaticTimeTranslation+0x88>
 800213c:	bd10      	pop	{r4, pc}
 800213e:	4b2a      	ldr	r3, [pc, #168]	; (80021e8 <automaticTimeTranslation+0x158>)
 8002140:	781b      	ldrb	r3, [r3, #0]
 8002142:	2b1a      	cmp	r3, #26
 8002144:	d0e8      	beq.n	8002118 <automaticTimeTranslation+0x88>
 8002146:	bd10      	pop	{r4, pc}
 8002148:	4b27      	ldr	r3, [pc, #156]	; (80021e8 <automaticTimeTranslation+0x158>)
 800214a:	781b      	ldrb	r3, [r3, #0]
 800214c:	2b1d      	cmp	r3, #29
 800214e:	d0c6      	beq.n	80020de <automaticTimeTranslation+0x4e>
 8002150:	bd10      	pop	{r4, pc}
 8002152:	4b25      	ldr	r3, [pc, #148]	; (80021e8 <automaticTimeTranslation+0x158>)
 8002154:	781b      	ldrb	r3, [r3, #0]
 8002156:	2b1b      	cmp	r3, #27
 8002158:	d0c1      	beq.n	80020de <automaticTimeTranslation+0x4e>
 800215a:	bd10      	pop	{r4, pc}
 800215c:	4b22      	ldr	r3, [pc, #136]	; (80021e8 <automaticTimeTranslation+0x158>)
 800215e:	781b      	ldrb	r3, [r3, #0]
 8002160:	2b1c      	cmp	r3, #28
 8002162:	d0bc      	beq.n	80020de <automaticTimeTranslation+0x4e>
 8002164:	bd10      	pop	{r4, pc}
 8002166:	4b20      	ldr	r3, [pc, #128]	; (80021e8 <automaticTimeTranslation+0x158>)
 8002168:	781b      	ldrb	r3, [r3, #0]
 800216a:	2b1c      	cmp	r3, #28
 800216c:	d0d4      	beq.n	8002118 <automaticTimeTranslation+0x88>
 800216e:	bd10      	pop	{r4, pc}
 8002170:	4b1d      	ldr	r3, [pc, #116]	; (80021e8 <automaticTimeTranslation+0x158>)
 8002172:	781b      	ldrb	r3, [r3, #0]
 8002174:	2b1f      	cmp	r3, #31
 8002176:	d0b2      	beq.n	80020de <automaticTimeTranslation+0x4e>
 8002178:	bd10      	pop	{r4, pc}
 800217a:	4c1d      	ldr	r4, [pc, #116]	; (80021f0 <automaticTimeTranslation+0x160>)
 800217c:	7822      	ldrb	r2, [r4, #0]
 800217e:	2a00      	cmp	r2, #0
 8002180:	d196      	bne.n	80020b0 <automaticTimeTranslation+0x20>
 8002182:	220a      	movs	r2, #10
 8002184:	701a      	strb	r2, [r3, #0]
 8002186:	f7ff fc91 	bl	8001aac <setTime>
 800218a:	2301      	movs	r3, #1
 800218c:	7023      	strb	r3, [r4, #0]
 800218e:	bd10      	pop	{r4, pc}
 8002190:	4b15      	ldr	r3, [pc, #84]	; (80021e8 <automaticTimeTranslation+0x158>)
 8002192:	781b      	ldrb	r3, [r3, #0]
 8002194:	2b1f      	cmp	r3, #31
 8002196:	d0bf      	beq.n	8002118 <automaticTimeTranslation+0x88>
 8002198:	bd10      	pop	{r4, pc}
 800219a:	4c15      	ldr	r4, [pc, #84]	; (80021f0 <automaticTimeTranslation+0x160>)
 800219c:	7822      	ldrb	r2, [r4, #0]
 800219e:	2a00      	cmp	r2, #0
 80021a0:	d186      	bne.n	80020b0 <automaticTimeTranslation+0x20>
 80021a2:	220b      	movs	r2, #11
 80021a4:	701a      	strb	r2, [r3, #0]
 80021a6:	f7ff fc81 	bl	8001aac <setTime>
 80021aa:	2301      	movs	r3, #1
 80021ac:	7023      	strb	r3, [r4, #0]
 80021ae:	bd10      	pop	{r4, pc}
 80021b0:	4b0d      	ldr	r3, [pc, #52]	; (80021e8 <automaticTimeTranslation+0x158>)
 80021b2:	781b      	ldrb	r3, [r3, #0]
 80021b4:	2b1b      	cmp	r3, #27
 80021b6:	d0af      	beq.n	8002118 <automaticTimeTranslation+0x88>
 80021b8:	bd10      	pop	{r4, pc}
 80021ba:	4b0b      	ldr	r3, [pc, #44]	; (80021e8 <automaticTimeTranslation+0x158>)
 80021bc:	781b      	ldrb	r3, [r3, #0]
 80021be:	2b1e      	cmp	r3, #30
 80021c0:	d08d      	beq.n	80020de <automaticTimeTranslation+0x4e>
 80021c2:	bd10      	pop	{r4, pc}
 80021c4:	2b04      	cmp	r3, #4
 80021c6:	f47f af73 	bne.w	80020b0 <automaticTimeTranslation+0x20>
 80021ca:	4b06      	ldr	r3, [pc, #24]	; (80021e4 <automaticTimeTranslation+0x154>)
 80021cc:	781b      	ldrb	r3, [r3, #0]
 80021ce:	2b18      	cmp	r3, #24
 80021d0:	f47f af6e 	bne.w	80020b0 <automaticTimeTranslation+0x20>
 80021d4:	4b04      	ldr	r3, [pc, #16]	; (80021e8 <automaticTimeTranslation+0x158>)
 80021d6:	781b      	ldrb	r3, [r3, #0]
 80021d8:	2b01      	cmp	r3, #1
 80021da:	d080      	beq.n	80020de <automaticTimeTranslation+0x4e>
 80021dc:	bd10      	pop	{r4, pc}
 80021de:	bf00      	nop
 80021e0:	200005a9 	.word	0x200005a9
 80021e4:	200005b0 	.word	0x200005b0
 80021e8:	200005a5 	.word	0x200005a5
 80021ec:	200005a7 	.word	0x200005a7
 80021f0:	200005aa 	.word	0x200005aa

080021f4 <HAL_MspInit>:
 80021f4:	4b0e      	ldr	r3, [pc, #56]	; (8002230 <HAL_MspInit+0x3c>)
 80021f6:	b082      	sub	sp, #8
 80021f8:	699a      	ldr	r2, [r3, #24]
 80021fa:	490e      	ldr	r1, [pc, #56]	; (8002234 <HAL_MspInit+0x40>)
 80021fc:	f042 0201 	orr.w	r2, r2, #1
 8002200:	619a      	str	r2, [r3, #24]
 8002202:	699a      	ldr	r2, [r3, #24]
 8002204:	f002 0201 	and.w	r2, r2, #1
 8002208:	9200      	str	r2, [sp, #0]
 800220a:	9a00      	ldr	r2, [sp, #0]
 800220c:	69da      	ldr	r2, [r3, #28]
 800220e:	f042 5280 	orr.w	r2, r2, #268435456	; 0x10000000
 8002212:	61da      	str	r2, [r3, #28]
 8002214:	69db      	ldr	r3, [r3, #28]
 8002216:	f003 5380 	and.w	r3, r3, #268435456	; 0x10000000
 800221a:	9301      	str	r3, [sp, #4]
 800221c:	9b01      	ldr	r3, [sp, #4]
 800221e:	684b      	ldr	r3, [r1, #4]
 8002220:	f023 63e0 	bic.w	r3, r3, #117440512	; 0x7000000
 8002224:	f043 7300 	orr.w	r3, r3, #33554432	; 0x2000000
 8002228:	604b      	str	r3, [r1, #4]
 800222a:	b002      	add	sp, #8
 800222c:	4770      	bx	lr
 800222e:	bf00      	nop
 8002230:	40021000 	.word	0x40021000
 8002234:	40010000 	.word	0x40010000

08002238 <HAL_I2C_MspInit>:
 8002238:	b570      	push	{r4, r5, r6, lr}
 800223a:	2400      	movs	r4, #0
 800223c:	6802      	ldr	r2, [r0, #0]
 800223e:	4b1d      	ldr	r3, [pc, #116]	; (80022b4 <HAL_I2C_MspInit+0x7c>)
 8002240:	b086      	sub	sp, #24
 8002242:	429a      	cmp	r2, r3
 8002244:	e9cd 4402 	strd	r4, r4, [sp, #8]
 8002248:	e9cd 4404 	strd	r4, r4, [sp, #16]
 800224c:	d001      	beq.n	8002252 <HAL_I2C_MspInit+0x1a>
 800224e:	b006      	add	sp, #24
 8002250:	bd70      	pop	{r4, r5, r6, pc}
 8002252:	f44f 6040 	mov.w	r0, #3072	; 0xc00
 8002256:	2203      	movs	r2, #3
 8002258:	2612      	movs	r6, #18
 800225a:	4d17      	ldr	r5, [pc, #92]	; (80022b8 <HAL_I2C_MspInit+0x80>)
 800225c:	a902      	add	r1, sp, #8
 800225e:	69ab      	ldr	r3, [r5, #24]
 8002260:	f043 0308 	orr.w	r3, r3, #8
 8002264:	61ab      	str	r3, [r5, #24]
 8002266:	69ab      	ldr	r3, [r5, #24]
 8002268:	9002      	str	r0, [sp, #8]
 800226a:	f003 0308 	and.w	r3, r3, #8
 800226e:	9300      	str	r3, [sp, #0]
 8002270:	4812      	ldr	r0, [pc, #72]	; (80022bc <HAL_I2C_MspInit+0x84>)
 8002272:	9b00      	ldr	r3, [sp, #0]
 8002274:	9205      	str	r2, [sp, #20]
 8002276:	9603      	str	r6, [sp, #12]
 8002278:	f000 fa34 	bl	80026e4 <HAL_GPIO_Init>
 800227c:	69eb      	ldr	r3, [r5, #28]
 800227e:	4622      	mov	r2, r4
 8002280:	f443 0380 	orr.w	r3, r3, #4194304	; 0x400000
 8002284:	61eb      	str	r3, [r5, #28]
 8002286:	69eb      	ldr	r3, [r5, #28]
 8002288:	4621      	mov	r1, r4
 800228a:	f403 0380 	and.w	r3, r3, #4194304	; 0x400000
 800228e:	9301      	str	r3, [sp, #4]
 8002290:	2021      	movs	r0, #33	; 0x21
 8002292:	9b01      	ldr	r3, [sp, #4]
 8002294:	f000 f97a 	bl	800258c <HAL_NVIC_SetPriority>
 8002298:	2021      	movs	r0, #33	; 0x21
 800229a:	f000 f9ad 	bl	80025f8 <HAL_NVIC_EnableIRQ>
 800229e:	4622      	mov	r2, r4
 80022a0:	4621      	mov	r1, r4
 80022a2:	2022      	movs	r0, #34	; 0x22
 80022a4:	f000 f972 	bl	800258c <HAL_NVIC_SetPriority>
 80022a8:	2022      	movs	r0, #34	; 0x22
 80022aa:	f000 f9a5 	bl	80025f8 <HAL_NVIC_EnableIRQ>
 80022ae:	b006      	add	sp, #24
 80022b0:	bd70      	pop	{r4, r5, r6, pc}
 80022b2:	bf00      	nop
 80022b4:	40005800 	.word	0x40005800
 80022b8:	40021000 	.word	0x40021000
 80022bc:	40010c00 	.word	0x40010c00

080022c0 <HAL_SPI_MspInit>:
 80022c0:	b570      	push	{r4, r5, r6, lr}
 80022c2:	2400      	movs	r4, #0
 80022c4:	6802      	ldr	r2, [r0, #0]
 80022c6:	4b1a      	ldr	r3, [pc, #104]	; (8002330 <HAL_SPI_MspInit+0x70>)
 80022c8:	b086      	sub	sp, #24
 80022ca:	429a      	cmp	r2, r3
 80022cc:	e9cd 4402 	strd	r4, r4, [sp, #8]
 80022d0:	e9cd 4404 	strd	r4, r4, [sp, #16]
 80022d4:	d001      	beq.n	80022da <HAL_SPI_MspInit+0x1a>
 80022d6:	b006      	add	sp, #24
 80022d8:	bd70      	pop	{r4, r5, r6, pc}
 80022da:	f44f 4120 	mov.w	r1, #40960	; 0xa000
 80022de:	2602      	movs	r6, #2
 80022e0:	2503      	movs	r5, #3
 80022e2:	f503 33ec 	add.w	r3, r3, #120832	; 0x1d800
 80022e6:	69da      	ldr	r2, [r3, #28]
 80022e8:	4812      	ldr	r0, [pc, #72]	; (8002334 <HAL_SPI_MspInit+0x74>)
 80022ea:	f442 4280 	orr.w	r2, r2, #16384	; 0x4000
 80022ee:	61da      	str	r2, [r3, #28]
 80022f0:	69da      	ldr	r2, [r3, #28]
 80022f2:	f402 4280 	and.w	r2, r2, #16384	; 0x4000
 80022f6:	9200      	str	r2, [sp, #0]
 80022f8:	9a00      	ldr	r2, [sp, #0]
 80022fa:	699a      	ldr	r2, [r3, #24]
 80022fc:	f042 0208 	orr.w	r2, r2, #8
 8002300:	619a      	str	r2, [r3, #24]
 8002302:	699b      	ldr	r3, [r3, #24]
 8002304:	9102      	str	r1, [sp, #8]
 8002306:	f003 0308 	and.w	r3, r3, #8
 800230a:	9301      	str	r3, [sp, #4]
 800230c:	a902      	add	r1, sp, #8
 800230e:	9b01      	ldr	r3, [sp, #4]
 8002310:	9603      	str	r6, [sp, #12]
 8002312:	9505      	str	r5, [sp, #20]
 8002314:	f000 f9e6 	bl	80026e4 <HAL_GPIO_Init>
 8002318:	f44f 4380 	mov.w	r3, #16384	; 0x4000
 800231c:	a902      	add	r1, sp, #8
 800231e:	4805      	ldr	r0, [pc, #20]	; (8002334 <HAL_SPI_MspInit+0x74>)
 8002320:	e9cd 4403 	strd	r4, r4, [sp, #12]
 8002324:	9302      	str	r3, [sp, #8]
 8002326:	f000 f9dd 	bl	80026e4 <HAL_GPIO_Init>
 800232a:	b006      	add	sp, #24
 800232c:	bd70      	pop	{r4, r5, r6, pc}
 800232e:	bf00      	nop
 8002330:	40003800 	.word	0x40003800
 8002334:	40010c00 	.word	0x40010c00

08002338 <HAL_TIM_Base_MspInit>:
 8002338:	b510      	push	{r4, lr}
 800233a:	6803      	ldr	r3, [r0, #0]
 800233c:	4a15      	ldr	r2, [pc, #84]	; (8002394 <HAL_TIM_Base_MspInit+0x5c>)
 800233e:	b082      	sub	sp, #8
 8002340:	4293      	cmp	r3, r2
 8002342:	d004      	beq.n	800234e <HAL_TIM_Base_MspInit+0x16>
 8002344:	f1b3 4f80 	cmp.w	r3, #1073741824	; 0x40000000
 8002348:	d00d      	beq.n	8002366 <HAL_TIM_Base_MspInit+0x2e>
 800234a:	b002      	add	sp, #8
 800234c:	bd10      	pop	{r4, pc}
 800234e:	4b12      	ldr	r3, [pc, #72]	; (8002398 <HAL_TIM_Base_MspInit+0x60>)
 8002350:	699a      	ldr	r2, [r3, #24]
 8002352:	f442 6200 	orr.w	r2, r2, #2048	; 0x800
 8002356:	619a      	str	r2, [r3, #24]
 8002358:	699b      	ldr	r3, [r3, #24]
 800235a:	f403 6300 	and.w	r3, r3, #2048	; 0x800
 800235e:	9300      	str	r3, [sp, #0]
 8002360:	9b00      	ldr	r3, [sp, #0]
 8002362:	b002      	add	sp, #8
 8002364:	bd10      	pop	{r4, pc}
 8002366:	2200      	movs	r2, #0
 8002368:	f503 3304 	add.w	r3, r3, #135168	; 0x21000
 800236c:	69dc      	ldr	r4, [r3, #28]
 800236e:	4611      	mov	r1, r2
 8002370:	f044 0401 	orr.w	r4, r4, #1
 8002374:	61dc      	str	r4, [r3, #28]
 8002376:	69db      	ldr	r3, [r3, #28]
 8002378:	201c      	movs	r0, #28
 800237a:	f003 0301 	and.w	r3, r3, #1
 800237e:	9301      	str	r3, [sp, #4]
 8002380:	9b01      	ldr	r3, [sp, #4]
 8002382:	f000 f903 	bl	800258c <HAL_NVIC_SetPriority>
 8002386:	201c      	movs	r0, #28
 8002388:	b002      	add	sp, #8
 800238a:	e8bd 4010 	ldmia.w	sp!, {r4, lr}
 800238e:	f000 b933 	b.w	80025f8 <HAL_NVIC_EnableIRQ>
 8002392:	bf00      	nop
 8002394:	40012c00 	.word	0x40012c00
 8002398:	40021000 	.word	0x40021000

0800239c <HAL_TIM_MspPostInit>:
 800239c:	2300      	movs	r3, #0
 800239e:	b530      	push	{r4, r5, lr}
 80023a0:	6801      	ldr	r1, [r0, #0]
 80023a2:	4a12      	ldr	r2, [pc, #72]	; (80023ec <HAL_TIM_MspPostInit+0x50>)
 80023a4:	b087      	sub	sp, #28
 80023a6:	4291      	cmp	r1, r2
 80023a8:	e9cd 3302 	strd	r3, r3, [sp, #8]
 80023ac:	e9cd 3304 	strd	r3, r3, [sp, #16]
 80023b0:	d001      	beq.n	80023b6 <HAL_TIM_MspPostInit+0x1a>
 80023b2:	b007      	add	sp, #28
 80023b4:	bd30      	pop	{r4, r5, pc}
 80023b6:	f44f 7080 	mov.w	r0, #256	; 0x100
 80023ba:	2502      	movs	r5, #2
 80023bc:	2403      	movs	r4, #3
 80023be:	f103 4380 	add.w	r3, r3, #1073741824	; 0x40000000
 80023c2:	f503 3304 	add.w	r3, r3, #135168	; 0x21000
 80023c6:	699a      	ldr	r2, [r3, #24]
 80023c8:	a902      	add	r1, sp, #8
 80023ca:	f042 0204 	orr.w	r2, r2, #4
 80023ce:	619a      	str	r2, [r3, #24]
 80023d0:	699b      	ldr	r3, [r3, #24]
 80023d2:	9002      	str	r0, [sp, #8]
 80023d4:	f003 0304 	and.w	r3, r3, #4
 80023d8:	9301      	str	r3, [sp, #4]
 80023da:	4805      	ldr	r0, [pc, #20]	; (80023f0 <HAL_TIM_MspPostInit+0x54>)
 80023dc:	9b01      	ldr	r3, [sp, #4]
 80023de:	9503      	str	r5, [sp, #12]
 80023e0:	9405      	str	r4, [sp, #20]
 80023e2:	f000 f97f 	bl	80026e4 <HAL_GPIO_Init>
 80023e6:	b007      	add	sp, #28
 80023e8:	bd30      	pop	{r4, r5, pc}
 80023ea:	bf00      	nop
 80023ec:	40012c00 	.word	0x40012c00
 80023f0:	40010800 	.word	0x40010800

080023f4 <NMI_Handler>:
 80023f4:	4770      	bx	lr
 80023f6:	bf00      	nop

080023f8 <HardFault_Handler>:
 80023f8:	e7fe      	b.n	80023f8 <HardFault_Handler>
 80023fa:	bf00      	nop

080023fc <MemManage_Handler>:
 80023fc:	e7fe      	b.n	80023fc <MemManage_Handler>
 80023fe:	bf00      	nop

08002400 <BusFault_Handler>:
 8002400:	e7fe      	b.n	8002400 <BusFault_Handler>
 8002402:	bf00      	nop

08002404 <UsageFault_Handler>:
 8002404:	e7fe      	b.n	8002404 <UsageFault_Handler>
 8002406:	bf00      	nop

08002408 <SVC_Handler>:
 8002408:	4770      	bx	lr
 800240a:	bf00      	nop

0800240c <DebugMon_Handler>:
 800240c:	4770      	bx	lr
 800240e:	bf00      	nop

08002410 <PendSV_Handler>:
 8002410:	4770      	bx	lr
 8002412:	bf00      	nop

08002414 <SysTick_Handler>:
 8002414:	f000 b896 	b.w	8002544 <HAL_IncTick>

08002418 <TIM2_IRQHandler>:
 8002418:	4801      	ldr	r0, [pc, #4]	; (8002420 <TIM2_IRQHandler+0x8>)
 800241a:	f002 bcb7 	b.w	8004d8c <HAL_TIM_IRQHandler>
 800241e:	bf00      	nop
 8002420:	200006a4 	.word	0x200006a4

08002424 <I2C2_EV_IRQHandler>:
 8002424:	4801      	ldr	r0, [pc, #4]	; (800242c <I2C2_EV_IRQHandler+0x8>)
 8002426:	f000 bf4f 	b.w	80032c8 <HAL_I2C_EV_IRQHandler>
 800242a:	bf00      	nop
 800242c:	20000610 	.word	0x20000610

08002430 <I2C2_ER_IRQHandler>:
 8002430:	4801      	ldr	r0, [pc, #4]	; (8002438 <I2C2_ER_IRQHandler+0x8>)
 8002432:	f001 bca3 	b.w	8003d7c <HAL_I2C_ER_IRQHandler>
 8002436:	bf00      	nop
 8002438:	20000610 	.word	0x20000610

0800243c <SystemInit>:
 800243c:	b430      	push	{r4, r5}
 800243e:	f44f 051f 	mov.w	r5, #10420224	; 0x9f0000
 8002442:	f04f 6400 	mov.w	r4, #134217728	; 0x8000000
 8002446:	4b0e      	ldr	r3, [pc, #56]	; (8002480 <SystemInit+0x44>)
 8002448:	4a0e      	ldr	r2, [pc, #56]	; (8002484 <SystemInit+0x48>)
 800244a:	6819      	ldr	r1, [r3, #0]
 800244c:	480e      	ldr	r0, [pc, #56]	; (8002488 <SystemInit+0x4c>)
 800244e:	f041 0101 	orr.w	r1, r1, #1
 8002452:	6019      	str	r1, [r3, #0]
 8002454:	6859      	ldr	r1, [r3, #4]
 8002456:	400a      	ands	r2, r1
 8002458:	605a      	str	r2, [r3, #4]
 800245a:	681a      	ldr	r2, [r3, #0]
 800245c:	f022 7284 	bic.w	r2, r2, #17301504	; 0x1080000
 8002460:	f422 3280 	bic.w	r2, r2, #65536	; 0x10000
 8002464:	601a      	str	r2, [r3, #0]
 8002466:	681a      	ldr	r2, [r3, #0]
 8002468:	f422 2280 	bic.w	r2, r2, #262144	; 0x40000
 800246c:	601a      	str	r2, [r3, #0]
 800246e:	685a      	ldr	r2, [r3, #4]
 8002470:	f422 02fe 	bic.w	r2, r2, #8323072	; 0x7f0000
 8002474:	605a      	str	r2, [r3, #4]
 8002476:	609d      	str	r5, [r3, #8]
 8002478:	6084      	str	r4, [r0, #8]
 800247a:	bc30      	pop	{r4, r5}
 800247c:	4770      	bx	lr
 800247e:	bf00      	nop
 8002480:	40021000 	.word	0x40021000
 8002484:	f8ff0000 	.word	0xf8ff0000
 8002488:	e000ed00 	.word	0xe000ed00

0800248c <Reset_Handler>:
 800248c:	2100      	movs	r1, #0
 800248e:	e003      	b.n	8002498 <LoopCopyDataInit>

08002490 <CopyDataInit>:
 8002490:	4b0b      	ldr	r3, [pc, #44]	; (80024c0 <LoopFillZerobss+0x14>)
 8002492:	585b      	ldr	r3, [r3, r1]
 8002494:	5043      	str	r3, [r0, r1]
 8002496:	3104      	adds	r1, #4

08002498 <LoopCopyDataInit>:
 8002498:	480a      	ldr	r0, [pc, #40]	; (80024c4 <LoopFillZerobss+0x18>)
 800249a:	4b0b      	ldr	r3, [pc, #44]	; (80024c8 <LoopFillZerobss+0x1c>)
 800249c:	1842      	adds	r2, r0, r1
 800249e:	429a      	cmp	r2, r3
 80024a0:	d3f6      	bcc.n	8002490 <CopyDataInit>
 80024a2:	4a0a      	ldr	r2, [pc, #40]	; (80024cc <LoopFillZerobss+0x20>)
 80024a4:	e002      	b.n	80024ac <LoopFillZerobss>

080024a6 <FillZerobss>:
 80024a6:	2300      	movs	r3, #0
 80024a8:	f842 3b04 	str.w	r3, [r2], #4

080024ac <LoopFillZerobss>:
 80024ac:	4b08      	ldr	r3, [pc, #32]	; (80024d0 <LoopFillZerobss+0x24>)
 80024ae:	429a      	cmp	r2, r3
 80024b0:	d3f9      	bcc.n	80024a6 <FillZerobss>
 80024b2:	f7ff ffc3 	bl	800243c <SystemInit>
 80024b6:	f002 fd63 	bl	8004f80 <__libc_init_array>
 80024ba:	f7fe f95d 	bl	8000778 <main>
 80024be:	4770      	bx	lr
 80024c0:	08005310 	.word	0x08005310
 80024c4:	20000000 	.word	0x20000000
 80024c8:	20000018 	.word	0x20000018
 80024cc:	20000018 	.word	0x20000018
 80024d0:	20000710 	.word	0x20000710

080024d4 <ADC1_2_IRQHandler>:
 80024d4:	e7fe      	b.n	80024d4 <ADC1_2_IRQHandler>
	...

080024d8 <HAL_InitTick>:
 80024d8:	b538      	push	{r3, r4, r5, lr}
 80024da:	f44f 737a 	mov.w	r3, #1000	; 0x3e8
 80024de:	490d      	ldr	r1, [pc, #52]	; (8002514 <HAL_InitTick+0x3c>)
 80024e0:	4a0d      	ldr	r2, [pc, #52]	; (8002518 <HAL_InitTick+0x40>)
 80024e2:	7809      	ldrb	r1, [r1, #0]
 80024e4:	6812      	ldr	r2, [r2, #0]
 80024e6:	fbb3 f3f1 	udiv	r3, r3, r1
 80024ea:	4605      	mov	r5, r0
 80024ec:	fbb2 f0f3 	udiv	r0, r2, r3
 80024f0:	f000 f890 	bl	8002614 <HAL_SYSTICK_Config>
 80024f4:	b908      	cbnz	r0, 80024fa <HAL_InitTick+0x22>
 80024f6:	2d0f      	cmp	r5, #15
 80024f8:	d901      	bls.n	80024fe <HAL_InitTick+0x26>
 80024fa:	2001      	movs	r0, #1
 80024fc:	bd38      	pop	{r3, r4, r5, pc}
 80024fe:	4604      	mov	r4, r0
 8002500:	4602      	mov	r2, r0
 8002502:	4629      	mov	r1, r5
 8002504:	f04f 30ff 	mov.w	r0, #4294967295
 8002508:	f000 f840 	bl	800258c <HAL_NVIC_SetPriority>
 800250c:	4b03      	ldr	r3, [pc, #12]	; (800251c <HAL_InitTick+0x44>)
 800250e:	4620      	mov	r0, r4
 8002510:	601d      	str	r5, [r3, #0]
 8002512:	bd38      	pop	{r3, r4, r5, pc}
 8002514:	20000010 	.word	0x20000010
 8002518:	2000000c 	.word	0x2000000c
 800251c:	20000014 	.word	0x20000014

08002520 <HAL_Init>:
 8002520:	4a07      	ldr	r2, [pc, #28]	; (8002540 <HAL_Init+0x20>)
 8002522:	b508      	push	{r3, lr}
 8002524:	6813      	ldr	r3, [r2, #0]
 8002526:	2003      	movs	r0, #3
 8002528:	f043 0310 	orr.w	r3, r3, #16
 800252c:	6013      	str	r3, [r2, #0]
 800252e:	f000 f81b 	bl	8002568 <HAL_NVIC_SetPriorityGrouping>
 8002532:	2000      	movs	r0, #0
 8002534:	f7ff ffd0 	bl	80024d8 <HAL_InitTick>
 8002538:	f7ff fe5c 	bl	80021f4 <HAL_MspInit>
 800253c:	2000      	movs	r0, #0
 800253e:	bd08      	pop	{r3, pc}
 8002540:	40022000 	.word	0x40022000

08002544 <HAL_IncTick>:
 8002544:	4a03      	ldr	r2, [pc, #12]	; (8002554 <HAL_IncTick+0x10>)
 8002546:	4b04      	ldr	r3, [pc, #16]	; (8002558 <HAL_IncTick+0x14>)
 8002548:	6811      	ldr	r1, [r2, #0]
 800254a:	781b      	ldrb	r3, [r3, #0]
 800254c:	440b      	add	r3, r1
 800254e:	6013      	str	r3, [r2, #0]
 8002550:	4770      	bx	lr
 8002552:	bf00      	nop
 8002554:	2000070c 	.word	0x2000070c
 8002558:	20000010 	.word	0x20000010

0800255c <HAL_GetTick>:
 800255c:	4b01      	ldr	r3, [pc, #4]	; (8002564 <HAL_GetTick+0x8>)
 800255e:	6818      	ldr	r0, [r3, #0]
 8002560:	4770      	bx	lr
 8002562:	bf00      	nop
 8002564:	2000070c 	.word	0x2000070c

08002568 <HAL_NVIC_SetPriorityGrouping>:
 8002568:	f64f 01ff 	movw	r1, #63743	; 0xf8ff
 800256c:	4a06      	ldr	r2, [pc, #24]	; (8002588 <HAL_NVIC_SetPriorityGrouping+0x20>)
 800256e:	0200      	lsls	r0, r0, #8
 8002570:	68d3      	ldr	r3, [r2, #12]
 8002572:	f400 60e0 	and.w	r0, r0, #1792	; 0x700
 8002576:	400b      	ands	r3, r1
 8002578:	f043 63bf 	orr.w	r3, r3, #100139008	; 0x5f80000
 800257c:	f443 3300 	orr.w	r3, r3, #131072	; 0x20000
 8002580:	4303      	orrs	r3, r0
 8002582:	60d3      	str	r3, [r2, #12]
 8002584:	4770      	bx	lr
 8002586:	bf00      	nop
 8002588:	e000ed00 	.word	0xe000ed00

0800258c <HAL_NVIC_SetPriority>:
 800258c:	4b18      	ldr	r3, [pc, #96]	; (80025f0 <HAL_NVIC_SetPriority+0x64>)
 800258e:	b430      	push	{r4, r5}
 8002590:	68db      	ldr	r3, [r3, #12]
 8002592:	f3c3 2302 	ubfx	r3, r3, #8, #3
 8002596:	f1c3 0507 	rsb	r5, r3, #7
 800259a:	2d04      	cmp	r5, #4
 800259c:	f103 0404 	add.w	r4, r3, #4
 80025a0:	bf28      	it	cs
 80025a2:	2504      	movcs	r5, #4
 80025a4:	2c06      	cmp	r4, #6
 80025a6:	d919      	bls.n	80025dc <HAL_NVIC_SetPriority+0x50>
 80025a8:	f04f 34ff 	mov.w	r4, #4294967295
 80025ac:	3b03      	subs	r3, #3
 80025ae:	409c      	lsls	r4, r3
 80025b0:	ea22 0404 	bic.w	r4, r2, r4
 80025b4:	f04f 32ff 	mov.w	r2, #4294967295
 80025b8:	40aa      	lsls	r2, r5
 80025ba:	ea21 0102 	bic.w	r1, r1, r2
 80025be:	fa01 f203 	lsl.w	r2, r1, r3
 80025c2:	4322      	orrs	r2, r4
 80025c4:	0112      	lsls	r2, r2, #4
 80025c6:	2800      	cmp	r0, #0
 80025c8:	b2d2      	uxtb	r2, r2
 80025ca:	db0a      	blt.n	80025e2 <HAL_NVIC_SetPriority+0x56>
 80025cc:	f100 4060 	add.w	r0, r0, #3758096384	; 0xe0000000
 80025d0:	f500 4061 	add.w	r0, r0, #57600	; 0xe100
 80025d4:	f880 2300 	strb.w	r2, [r0, #768]	; 0x300
 80025d8:	bc30      	pop	{r4, r5}
 80025da:	4770      	bx	lr
 80025dc:	2400      	movs	r4, #0
 80025de:	4623      	mov	r3, r4
 80025e0:	e7e8      	b.n	80025b4 <HAL_NVIC_SetPriority+0x28>
 80025e2:	4b04      	ldr	r3, [pc, #16]	; (80025f4 <HAL_NVIC_SetPriority+0x68>)
 80025e4:	f000 000f 	and.w	r0, r0, #15
 80025e8:	4403      	add	r3, r0
 80025ea:	761a      	strb	r2, [r3, #24]
 80025ec:	bc30      	pop	{r4, r5}
 80025ee:	4770      	bx	lr
 80025f0:	e000ed00 	.word	0xe000ed00
 80025f4:	e000ecfc 	.word	0xe000ecfc

080025f8 <HAL_NVIC_EnableIRQ>:
 80025f8:	2800      	cmp	r0, #0
 80025fa:	db07      	blt.n	800260c <HAL_NVIC_EnableIRQ+0x14>
 80025fc:	2301      	movs	r3, #1
 80025fe:	f000 011f 	and.w	r1, r0, #31
 8002602:	4a03      	ldr	r2, [pc, #12]	; (8002610 <HAL_NVIC_EnableIRQ+0x18>)
 8002604:	408b      	lsls	r3, r1
 8002606:	0940      	lsrs	r0, r0, #5
 8002608:	f842 3020 	str.w	r3, [r2, r0, lsl #2]
 800260c:	4770      	bx	lr
 800260e:	bf00      	nop
 8002610:	e000e100 	.word	0xe000e100

08002614 <HAL_SYSTICK_Config>:
 8002614:	3801      	subs	r0, #1
 8002616:	f1b0 7f80 	cmp.w	r0, #16777216	; 0x1000000
 800261a:	d20d      	bcs.n	8002638 <HAL_SYSTICK_Config+0x24>
 800261c:	b430      	push	{r4, r5}
 800261e:	25f0      	movs	r5, #240	; 0xf0
 8002620:	2200      	movs	r2, #0
 8002622:	2107      	movs	r1, #7
 8002624:	4b05      	ldr	r3, [pc, #20]	; (800263c <HAL_SYSTICK_Config+0x28>)
 8002626:	4c06      	ldr	r4, [pc, #24]	; (8002640 <HAL_SYSTICK_Config+0x2c>)
 8002628:	6058      	str	r0, [r3, #4]
 800262a:	f884 5023 	strb.w	r5, [r4, #35]	; 0x23
 800262e:	4610      	mov	r0, r2
 8002630:	bc30      	pop	{r4, r5}
 8002632:	609a      	str	r2, [r3, #8]
 8002634:	6019      	str	r1, [r3, #0]
 8002636:	4770      	bx	lr
 8002638:	2001      	movs	r0, #1
 800263a:	4770      	bx	lr
 800263c:	e000e010 	.word	0xe000e010
 8002640:	e000ed00 	.word	0xe000ed00

08002644 <HAL_DMA_Abort_IT>:
 8002644:	b538      	push	{r3, r4, r5, lr}
 8002646:	f890 3021 	ldrb.w	r3, [r0, #33]	; 0x21
 800264a:	2b02      	cmp	r3, #2
 800264c:	d004      	beq.n	8002658 <HAL_DMA_Abort_IT+0x14>
 800264e:	2204      	movs	r2, #4
 8002650:	2401      	movs	r4, #1
 8002652:	6382      	str	r2, [r0, #56]	; 0x38
 8002654:	4620      	mov	r0, r4
 8002656:	bd38      	pop	{r3, r4, r5, pc}
 8002658:	6803      	ldr	r3, [r0, #0]
 800265a:	491d      	ldr	r1, [pc, #116]	; (80026d0 <HAL_DMA_Abort_IT+0x8c>)
 800265c:	681a      	ldr	r2, [r3, #0]
 800265e:	428b      	cmp	r3, r1
 8002660:	f022 020e 	bic.w	r2, r2, #14
 8002664:	601a      	str	r2, [r3, #0]
 8002666:	681a      	ldr	r2, [r3, #0]
 8002668:	f022 0201 	bic.w	r2, r2, #1
 800266c:	601a      	str	r2, [r3, #0]
 800266e:	d021      	beq.n	80026b4 <HAL_DMA_Abort_IT+0x70>
 8002670:	4a18      	ldr	r2, [pc, #96]	; (80026d4 <HAL_DMA_Abort_IT+0x90>)
 8002672:	4293      	cmp	r3, r2
 8002674:	d01c      	beq.n	80026b0 <HAL_DMA_Abort_IT+0x6c>
 8002676:	3214      	adds	r2, #20
 8002678:	4293      	cmp	r3, r2
 800267a:	d01d      	beq.n	80026b8 <HAL_DMA_Abort_IT+0x74>
 800267c:	3214      	adds	r2, #20
 800267e:	4293      	cmp	r3, r2
 8002680:	d01d      	beq.n	80026be <HAL_DMA_Abort_IT+0x7a>
 8002682:	3214      	adds	r2, #20
 8002684:	4293      	cmp	r3, r2
 8002686:	d01d      	beq.n	80026c4 <HAL_DMA_Abort_IT+0x80>
 8002688:	3214      	adds	r2, #20
 800268a:	4293      	cmp	r3, r2
 800268c:	bf0c      	ite	eq
 800268e:	f44f 1380 	moveq.w	r3, #1048576	; 0x100000
 8002692:	f04f 7380 	movne.w	r3, #16777216	; 0x1000000
 8002696:	2101      	movs	r1, #1
 8002698:	2400      	movs	r4, #0
 800269a:	4d0f      	ldr	r5, [pc, #60]	; (80026d8 <HAL_DMA_Abort_IT+0x94>)
 800269c:	6b42      	ldr	r2, [r0, #52]	; 0x34
 800269e:	606b      	str	r3, [r5, #4]
 80026a0:	f880 1021 	strb.w	r1, [r0, #33]	; 0x21
 80026a4:	f880 4020 	strb.w	r4, [r0, #32]
 80026a8:	b17a      	cbz	r2, 80026ca <HAL_DMA_Abort_IT+0x86>
 80026aa:	4790      	blx	r2
 80026ac:	4620      	mov	r0, r4
 80026ae:	bd38      	pop	{r3, r4, r5, pc}
 80026b0:	2310      	movs	r3, #16
 80026b2:	e7f0      	b.n	8002696 <HAL_DMA_Abort_IT+0x52>
 80026b4:	2301      	movs	r3, #1
 80026b6:	e7ee      	b.n	8002696 <HAL_DMA_Abort_IT+0x52>
 80026b8:	f44f 7380 	mov.w	r3, #256	; 0x100
 80026bc:	e7eb      	b.n	8002696 <HAL_DMA_Abort_IT+0x52>
 80026be:	f44f 5380 	mov.w	r3, #4096	; 0x1000
 80026c2:	e7e8      	b.n	8002696 <HAL_DMA_Abort_IT+0x52>
 80026c4:	f44f 3380 	mov.w	r3, #65536	; 0x10000
 80026c8:	e7e5      	b.n	8002696 <HAL_DMA_Abort_IT+0x52>
 80026ca:	4614      	mov	r4, r2
 80026cc:	e7c2      	b.n	8002654 <HAL_DMA_Abort_IT+0x10>
 80026ce:	bf00      	nop
 80026d0:	40020008 	.word	0x40020008
 80026d4:	4002001c 	.word	0x4002001c
 80026d8:	40020000 	.word	0x40020000

080026dc <HAL_DMA_GetState>:
 80026dc:	f890 0021 	ldrb.w	r0, [r0, #33]	; 0x21
 80026e0:	4770      	bx	lr
 80026e2:	bf00      	nop

080026e4 <HAL_GPIO_Init>:
 80026e4:	680a      	ldr	r2, [r1, #0]
 80026e6:	2a00      	cmp	r2, #0
 80026e8:	f000 80db 	beq.w	80028a2 <HAL_GPIO_Init+0x1be>
 80026ec:	e92d 4ff0 	stmdb	sp!, {r4, r5, r6, r7, r8, r9, sl, fp, lr}
 80026f0:	f04f 0a00 	mov.w	sl, #0
 80026f4:	b085      	sub	sp, #20
 80026f6:	4655      	mov	r5, sl
 80026f8:	f8df c1d0 	ldr.w	ip, [pc, #464]	; 80028cc <HAL_GPIO_Init+0x1e8>
 80026fc:	f8df e1d0 	ldr.w	lr, [pc, #464]	; 80028d0 <HAL_GPIO_Init+0x1ec>
 8002700:	4f6d      	ldr	r7, [pc, #436]	; (80028b8 <HAL_GPIO_Init+0x1d4>)
 8002702:	f8df 81d0 	ldr.w	r8, [pc, #464]	; 80028d4 <HAL_GPIO_Init+0x1f0>
 8002706:	e003      	b.n	8002710 <HAL_GPIO_Init+0x2c>
 8002708:	3501      	adds	r5, #1
 800270a:	fa32 f305 	lsrs.w	r3, r2, r5
 800270e:	d078      	beq.n	8002802 <HAL_GPIO_Init+0x11e>
 8002710:	2301      	movs	r3, #1
 8002712:	40ab      	lsls	r3, r5
 8002714:	ea02 0403 	and.w	r4, r2, r3
 8002718:	42a3      	cmp	r3, r4
 800271a:	d1f5      	bne.n	8002708 <HAL_GPIO_Init+0x24>
 800271c:	684a      	ldr	r2, [r1, #4]
 800271e:	2a12      	cmp	r2, #18
 8002720:	f000 809e 	beq.w	8002860 <HAL_GPIO_Init+0x17c>
 8002724:	f200 8087 	bhi.w	8002836 <HAL_GPIO_Init+0x152>
 8002728:	2a02      	cmp	r2, #2
 800272a:	f000 809d 	beq.w	8002868 <HAL_GPIO_Init+0x184>
 800272e:	d97c      	bls.n	800282a <HAL_GPIO_Init+0x146>
 8002730:	2a03      	cmp	r2, #3
 8002732:	d069      	beq.n	8002808 <HAL_GPIO_Init+0x124>
 8002734:	2a11      	cmp	r2, #17
 8002736:	d102      	bne.n	800273e <HAL_GPIO_Init+0x5a>
 8002738:	68cb      	ldr	r3, [r1, #12]
 800273a:	f103 0a04 	add.w	sl, r3, #4
 800273e:	2cff      	cmp	r4, #255	; 0xff
 8002740:	d866      	bhi.n	8002810 <HAL_GPIO_Init+0x12c>
 8002742:	4681      	mov	r9, r0
 8002744:	6803      	ldr	r3, [r0, #0]
 8002746:	00aa      	lsls	r2, r5, #2
 8002748:	260f      	movs	r6, #15
 800274a:	fa06 fb02 	lsl.w	fp, r6, r2
 800274e:	ea23 030b 	bic.w	r3, r3, fp
 8002752:	fa0a f202 	lsl.w	r2, sl, r2
 8002756:	4313      	orrs	r3, r2
 8002758:	f8c9 3000 	str.w	r3, [r9]
 800275c:	684a      	ldr	r2, [r1, #4]
 800275e:	00d3      	lsls	r3, r2, #3
 8002760:	d561      	bpl.n	8002826 <HAL_GPIO_Init+0x142>
 8002762:	f8dc 9018 	ldr.w	r9, [ip, #24]
 8002766:	f025 0303 	bic.w	r3, r5, #3
 800276a:	f049 0901 	orr.w	r9, r9, #1
 800276e:	f8cc 9018 	str.w	r9, [ip, #24]
 8002772:	f8dc 9018 	ldr.w	r9, [ip, #24]
 8002776:	f103 4380 	add.w	r3, r3, #1073741824	; 0x40000000
 800277a:	f009 0901 	and.w	r9, r9, #1
 800277e:	f8cd 900c 	str.w	r9, [sp, #12]
 8002782:	f503 3380 	add.w	r3, r3, #65536	; 0x10000
 8002786:	f005 0903 	and.w	r9, r5, #3
 800278a:	f8dd b00c 	ldr.w	fp, [sp, #12]
 800278e:	ea4f 0989 	mov.w	r9, r9, lsl #2
 8002792:	f8d3 b008 	ldr.w	fp, [r3, #8]
 8002796:	fa06 f609 	lsl.w	r6, r6, r9
 800279a:	ea2b 0606 	bic.w	r6, fp, r6
 800279e:	4570      	cmp	r0, lr
 80027a0:	9601      	str	r6, [sp, #4]
 80027a2:	d011      	beq.n	80027c8 <HAL_GPIO_Init+0xe4>
 80027a4:	4540      	cmp	r0, r8
 80027a6:	d063      	beq.n	8002870 <HAL_GPIO_Init+0x18c>
 80027a8:	4e44      	ldr	r6, [pc, #272]	; (80028bc <HAL_GPIO_Init+0x1d8>)
 80027aa:	42b0      	cmp	r0, r6
 80027ac:	d07a      	beq.n	80028a4 <HAL_GPIO_Init+0x1c0>
 80027ae:	4e44      	ldr	r6, [pc, #272]	; (80028c0 <HAL_GPIO_Init+0x1dc>)
 80027b0:	42b0      	cmp	r0, r6
 80027b2:	bf0c      	ite	eq
 80027b4:	f04f 0b03 	moveq.w	fp, #3
 80027b8:	f04f 0b04 	movne.w	fp, #4
 80027bc:	9e01      	ldr	r6, [sp, #4]
 80027be:	fa0b f909 	lsl.w	r9, fp, r9
 80027c2:	ea46 0609 	orr.w	r6, r6, r9
 80027c6:	9601      	str	r6, [sp, #4]
 80027c8:	609e      	str	r6, [r3, #8]
 80027ca:	683b      	ldr	r3, [r7, #0]
 80027cc:	03d6      	lsls	r6, r2, #15
 80027ce:	bf4c      	ite	mi
 80027d0:	4323      	orrmi	r3, r4
 80027d2:	43a3      	bicpl	r3, r4
 80027d4:	603b      	str	r3, [r7, #0]
 80027d6:	687b      	ldr	r3, [r7, #4]
 80027d8:	0396      	lsls	r6, r2, #14
 80027da:	bf4c      	ite	mi
 80027dc:	4323      	orrmi	r3, r4
 80027de:	43a3      	bicpl	r3, r4
 80027e0:	607b      	str	r3, [r7, #4]
 80027e2:	68bb      	ldr	r3, [r7, #8]
 80027e4:	02d6      	lsls	r6, r2, #11
 80027e6:	bf4c      	ite	mi
 80027e8:	4323      	orrmi	r3, r4
 80027ea:	43a3      	bicpl	r3, r4
 80027ec:	60bb      	str	r3, [r7, #8]
 80027ee:	0292      	lsls	r2, r2, #10
 80027f0:	68fb      	ldr	r3, [r7, #12]
 80027f2:	d515      	bpl.n	8002820 <HAL_GPIO_Init+0x13c>
 80027f4:	431c      	orrs	r4, r3
 80027f6:	60fc      	str	r4, [r7, #12]
 80027f8:	680a      	ldr	r2, [r1, #0]
 80027fa:	3501      	adds	r5, #1
 80027fc:	fa32 f305 	lsrs.w	r3, r2, r5
 8002800:	d186      	bne.n	8002710 <HAL_GPIO_Init+0x2c>
 8002802:	b005      	add	sp, #20
 8002804:	e8bd 8ff0 	ldmia.w	sp!, {r4, r5, r6, r7, r8, r9, sl, fp, pc}
 8002808:	2cff      	cmp	r4, #255	; 0xff
 800280a:	f04f 0a00 	mov.w	sl, #0
 800280e:	d998      	bls.n	8002742 <HAL_GPIO_Init+0x5e>
 8002810:	f105 4280 	add.w	r2, r5, #1073741824	; 0x40000000
 8002814:	3a08      	subs	r2, #8
 8002816:	6843      	ldr	r3, [r0, #4]
 8002818:	0092      	lsls	r2, r2, #2
 800281a:	f100 0904 	add.w	r9, r0, #4
 800281e:	e793      	b.n	8002748 <HAL_GPIO_Init+0x64>
 8002820:	ea23 0404 	bic.w	r4, r3, r4
 8002824:	60fc      	str	r4, [r7, #12]
 8002826:	680a      	ldr	r2, [r1, #0]
 8002828:	e76e      	b.n	8002708 <HAL_GPIO_Init+0x24>
 800282a:	b1a2      	cbz	r2, 8002856 <HAL_GPIO_Init+0x172>
 800282c:	2a01      	cmp	r2, #1
 800282e:	d186      	bne.n	800273e <HAL_GPIO_Init+0x5a>
 8002830:	f8d1 a00c 	ldr.w	sl, [r1, #12]
 8002834:	e783      	b.n	800273e <HAL_GPIO_Init+0x5a>
 8002836:	4e23      	ldr	r6, [pc, #140]	; (80028c4 <HAL_GPIO_Init+0x1e0>)
 8002838:	42b2      	cmp	r2, r6
 800283a:	d00c      	beq.n	8002856 <HAL_GPIO_Init+0x172>
 800283c:	d920      	bls.n	8002880 <HAL_GPIO_Init+0x19c>
 800283e:	4e22      	ldr	r6, [pc, #136]	; (80028c8 <HAL_GPIO_Init+0x1e4>)
 8002840:	42b2      	cmp	r2, r6
 8002842:	d008      	beq.n	8002856 <HAL_GPIO_Init+0x172>
 8002844:	f506 3680 	add.w	r6, r6, #65536	; 0x10000
 8002848:	42b2      	cmp	r2, r6
 800284a:	d004      	beq.n	8002856 <HAL_GPIO_Init+0x172>
 800284c:	f5a6 1680 	sub.w	r6, r6, #1048576	; 0x100000
 8002850:	42b2      	cmp	r2, r6
 8002852:	f47f af74 	bne.w	800273e <HAL_GPIO_Init+0x5a>
 8002856:	688a      	ldr	r2, [r1, #8]
 8002858:	b9e2      	cbnz	r2, 8002894 <HAL_GPIO_Init+0x1b0>
 800285a:	f04f 0a04 	mov.w	sl, #4
 800285e:	e76e      	b.n	800273e <HAL_GPIO_Init+0x5a>
 8002860:	68cb      	ldr	r3, [r1, #12]
 8002862:	f103 0a0c 	add.w	sl, r3, #12
 8002866:	e76a      	b.n	800273e <HAL_GPIO_Init+0x5a>
 8002868:	68cb      	ldr	r3, [r1, #12]
 800286a:	f103 0a08 	add.w	sl, r3, #8
 800286e:	e766      	b.n	800273e <HAL_GPIO_Init+0x5a>
 8002870:	f04f 0b01 	mov.w	fp, #1
 8002874:	fa0b f909 	lsl.w	r9, fp, r9
 8002878:	ea46 0609 	orr.w	r6, r6, r9
 800287c:	9601      	str	r6, [sp, #4]
 800287e:	e7a3      	b.n	80027c8 <HAL_GPIO_Init+0xe4>
 8002880:	f5a6 1680 	sub.w	r6, r6, #1048576	; 0x100000
 8002884:	42b2      	cmp	r2, r6
 8002886:	d0e6      	beq.n	8002856 <HAL_GPIO_Init+0x172>
 8002888:	f506 3680 	add.w	r6, r6, #65536	; 0x10000
 800288c:	42b2      	cmp	r2, r6
 800288e:	f47f af56 	bne.w	800273e <HAL_GPIO_Init+0x5a>
 8002892:	e7e0      	b.n	8002856 <HAL_GPIO_Init+0x172>
 8002894:	2a01      	cmp	r2, #1
 8002896:	bf0c      	ite	eq
 8002898:	6103      	streq	r3, [r0, #16]
 800289a:	6143      	strne	r3, [r0, #20]
 800289c:	f04f 0a08 	mov.w	sl, #8
 80028a0:	e74d      	b.n	800273e <HAL_GPIO_Init+0x5a>
 80028a2:	4770      	bx	lr
 80028a4:	f04f 0b02 	mov.w	fp, #2
 80028a8:	9e01      	ldr	r6, [sp, #4]
 80028aa:	fa0b f909 	lsl.w	r9, fp, r9
 80028ae:	ea46 0609 	orr.w	r6, r6, r9
 80028b2:	9601      	str	r6, [sp, #4]
 80028b4:	e788      	b.n	80027c8 <HAL_GPIO_Init+0xe4>
 80028b6:	bf00      	nop
 80028b8:	40010400 	.word	0x40010400
 80028bc:	40011000 	.word	0x40011000
 80028c0:	40011400 	.word	0x40011400
 80028c4:	10210000 	.word	0x10210000
 80028c8:	10310000 	.word	0x10310000
 80028cc:	40021000 	.word	0x40021000
 80028d0:	40010800 	.word	0x40010800
 80028d4:	40010c00 	.word	0x40010c00

080028d8 <HAL_GPIO_ReadPin>:
 80028d8:	6883      	ldr	r3, [r0, #8]
 80028da:	4219      	tst	r1, r3
 80028dc:	bf14      	ite	ne
 80028de:	2001      	movne	r0, #1
 80028e0:	2000      	moveq	r0, #0
 80028e2:	4770      	bx	lr

080028e4 <HAL_GPIO_WritePin>:
 80028e4:	b902      	cbnz	r2, 80028e8 <HAL_GPIO_WritePin+0x4>
 80028e6:	0409      	lsls	r1, r1, #16
 80028e8:	6101      	str	r1, [r0, #16]
 80028ea:	4770      	bx	lr

080028ec <HAL_GPIO_TogglePin>:
 80028ec:	68c3      	ldr	r3, [r0, #12]
 80028ee:	420b      	tst	r3, r1
 80028f0:	bf14      	ite	ne
 80028f2:	6141      	strne	r1, [r0, #20]
 80028f4:	6101      	streq	r1, [r0, #16]
 80028f6:	4770      	bx	lr

080028f8 <HAL_I2C_Init>:
 80028f8:	2800      	cmp	r0, #0
 80028fa:	f000 8097 	beq.w	8002a2c <HAL_I2C_Init+0x134>
 80028fe:	b5f8      	push	{r3, r4, r5, r6, r7, lr}
 8002900:	f890 303d 	ldrb.w	r3, [r0, #61]	; 0x3d
 8002904:	4604      	mov	r4, r0
 8002906:	f003 02ff 	and.w	r2, r3, #255	; 0xff
 800290a:	2b00      	cmp	r3, #0
 800290c:	f000 8087 	beq.w	8002a1e <HAL_I2C_Init+0x126>
 8002910:	2324      	movs	r3, #36	; 0x24
 8002912:	6822      	ldr	r2, [r4, #0]
 8002914:	f884 303d 	strb.w	r3, [r4, #61]	; 0x3d
 8002918:	6813      	ldr	r3, [r2, #0]
 800291a:	f023 0301 	bic.w	r3, r3, #1
 800291e:	6013      	str	r3, [r2, #0]
 8002920:	f001 fe56 	bl	80045d0 <HAL_RCC_GetPCLK1Freq>
 8002924:	6862      	ldr	r2, [r4, #4]
 8002926:	4b4b      	ldr	r3, [pc, #300]	; (8002a54 <HAL_I2C_Init+0x15c>)
 8002928:	429a      	cmp	r2, r3
 800292a:	d84b      	bhi.n	80029c4 <HAL_I2C_Init+0xcc>
 800292c:	4b4a      	ldr	r3, [pc, #296]	; (8002a58 <HAL_I2C_Init+0x160>)
 800292e:	4298      	cmp	r0, r3
 8002930:	d97a      	bls.n	8002a28 <HAL_I2C_Init+0x130>
 8002932:	1e43      	subs	r3, r0, #1
 8002934:	0052      	lsls	r2, r2, #1
 8002936:	fbb3 f2f2 	udiv	r2, r3, r2
 800293a:	4948      	ldr	r1, [pc, #288]	; (8002a5c <HAL_I2C_Init+0x164>)
 800293c:	6823      	ldr	r3, [r4, #0]
 800293e:	fba1 1000 	umull	r1, r0, r1, r0
 8002942:	6859      	ldr	r1, [r3, #4]
 8002944:	0c80      	lsrs	r0, r0, #18
 8002946:	f021 013f 	bic.w	r1, r1, #63	; 0x3f
 800294a:	4301      	orrs	r1, r0
 800294c:	6059      	str	r1, [r3, #4]
 800294e:	6a19      	ldr	r1, [r3, #32]
 8002950:	3001      	adds	r0, #1
 8002952:	f021 013f 	bic.w	r1, r1, #63	; 0x3f
 8002956:	4308      	orrs	r0, r1
 8002958:	6218      	str	r0, [r3, #32]
 800295a:	1c50      	adds	r0, r2, #1
 800295c:	f3c0 000b 	ubfx	r0, r0, #0, #12
 8002960:	2804      	cmp	r0, #4
 8002962:	bf38      	it	cc
 8002964:	2004      	movcc	r0, #4
 8002966:	69d9      	ldr	r1, [r3, #28]
 8002968:	f421 414f 	bic.w	r1, r1, #52992	; 0xcf00
 800296c:	f021 01ff 	bic.w	r1, r1, #255	; 0xff
 8002970:	2500      	movs	r5, #0
 8002972:	2620      	movs	r6, #32
 8002974:	4308      	orrs	r0, r1
 8002976:	61d8      	str	r0, [r3, #28]
 8002978:	6819      	ldr	r1, [r3, #0]
 800297a:	e9d4 2007 	ldrd	r2, r0, [r4, #28]
 800297e:	f021 01c0 	bic.w	r1, r1, #192	; 0xc0
 8002982:	4302      	orrs	r2, r0
 8002984:	430a      	orrs	r2, r1
 8002986:	601a      	str	r2, [r3, #0]
 8002988:	6899      	ldr	r1, [r3, #8]
 800298a:	e9d4 0203 	ldrd	r0, r2, [r4, #12]
 800298e:	f421 4103 	bic.w	r1, r1, #33536	; 0x8300
 8002992:	f021 01ff 	bic.w	r1, r1, #255	; 0xff
 8002996:	4302      	orrs	r2, r0
 8002998:	430a      	orrs	r2, r1
 800299a:	609a      	str	r2, [r3, #8]
 800299c:	68d9      	ldr	r1, [r3, #12]
 800299e:	e9d4 2005 	ldrd	r2, r0, [r4, #20]
 80029a2:	f021 01ff 	bic.w	r1, r1, #255	; 0xff
 80029a6:	4302      	orrs	r2, r0
 80029a8:	430a      	orrs	r2, r1
 80029aa:	60da      	str	r2, [r3, #12]
 80029ac:	681a      	ldr	r2, [r3, #0]
 80029ae:	4628      	mov	r0, r5
 80029b0:	f042 0201 	orr.w	r2, r2, #1
 80029b4:	601a      	str	r2, [r3, #0]
 80029b6:	6425      	str	r5, [r4, #64]	; 0x40
 80029b8:	f884 603d 	strb.w	r6, [r4, #61]	; 0x3d
 80029bc:	6325      	str	r5, [r4, #48]	; 0x30
 80029be:	f884 503e 	strb.w	r5, [r4, #62]	; 0x3e
 80029c2:	bdf8      	pop	{r3, r4, r5, r6, r7, pc}
 80029c4:	4b26      	ldr	r3, [pc, #152]	; (8002a60 <HAL_I2C_Init+0x168>)
 80029c6:	4298      	cmp	r0, r3
 80029c8:	d92e      	bls.n	8002a28 <HAL_I2C_Init+0x130>
 80029ca:	f44f 7196 	mov.w	r1, #300	; 0x12c
 80029ce:	4d23      	ldr	r5, [pc, #140]	; (8002a5c <HAL_I2C_Init+0x164>)
 80029d0:	6823      	ldr	r3, [r4, #0]
 80029d2:	fba5 6500 	umull	r6, r5, r5, r0
 80029d6:	0cad      	lsrs	r5, r5, #18
 80029d8:	fb01 f105 	mul.w	r1, r1, r5
 80029dc:	685e      	ldr	r6, [r3, #4]
 80029de:	4f21      	ldr	r7, [pc, #132]	; (8002a64 <HAL_I2C_Init+0x16c>)
 80029e0:	f026 063f 	bic.w	r6, r6, #63	; 0x3f
 80029e4:	fba7 7101 	umull	r7, r1, r7, r1
 80029e8:	4335      	orrs	r5, r6
 80029ea:	605d      	str	r5, [r3, #4]
 80029ec:	6a1d      	ldr	r5, [r3, #32]
 80029ee:	0989      	lsrs	r1, r1, #6
 80029f0:	f025 053f 	bic.w	r5, r5, #63	; 0x3f
 80029f4:	3101      	adds	r1, #1
 80029f6:	4329      	orrs	r1, r5
 80029f8:	6219      	str	r1, [r3, #32]
 80029fa:	69d9      	ldr	r1, [r3, #28]
 80029fc:	68a5      	ldr	r5, [r4, #8]
 80029fe:	f421 414f 	bic.w	r1, r1, #52992	; 0xcf00
 8002a02:	3801      	subs	r0, #1
 8002a04:	f021 01ff 	bic.w	r1, r1, #255	; 0xff
 8002a08:	b995      	cbnz	r5, 8002a30 <HAL_I2C_Init+0x138>
 8002a0a:	eb02 0242 	add.w	r2, r2, r2, lsl #1
 8002a0e:	fbb0 f0f2 	udiv	r0, r0, r2
 8002a12:	3001      	adds	r0, #1
 8002a14:	f3c0 000b 	ubfx	r0, r0, #0, #12
 8002a18:	b9c0      	cbnz	r0, 8002a4c <HAL_I2C_Init+0x154>
 8002a1a:	2001      	movs	r0, #1
 8002a1c:	e7a8      	b.n	8002970 <HAL_I2C_Init+0x78>
 8002a1e:	f880 203c 	strb.w	r2, [r0, #60]	; 0x3c
 8002a22:	f7ff fc09 	bl	8002238 <HAL_I2C_MspInit>
 8002a26:	e773      	b.n	8002910 <HAL_I2C_Init+0x18>
 8002a28:	2001      	movs	r0, #1
 8002a2a:	bdf8      	pop	{r3, r4, r5, r6, r7, pc}
 8002a2c:	2001      	movs	r0, #1
 8002a2e:	4770      	bx	lr
 8002a30:	eb02 0282 	add.w	r2, r2, r2, lsl #2
 8002a34:	eb02 0282 	add.w	r2, r2, r2, lsl #2
 8002a38:	fbb0 f0f2 	udiv	r0, r0, r2
 8002a3c:	3001      	adds	r0, #1
 8002a3e:	f3c0 000b 	ubfx	r0, r0, #0, #12
 8002a42:	2800      	cmp	r0, #0
 8002a44:	d0e9      	beq.n	8002a1a <HAL_I2C_Init+0x122>
 8002a46:	f440 4040 	orr.w	r0, r0, #49152	; 0xc000
 8002a4a:	e791      	b.n	8002970 <HAL_I2C_Init+0x78>
 8002a4c:	f440 4000 	orr.w	r0, r0, #32768	; 0x8000
 8002a50:	e78e      	b.n	8002970 <HAL_I2C_Init+0x78>
 8002a52:	bf00      	nop
 8002a54:	000186a0 	.word	0x000186a0
 8002a58:	001e847f 	.word	0x001e847f
 8002a5c:	431bde83 	.word	0x431bde83
 8002a60:	003d08ff 	.word	0x003d08ff
 8002a64:	10624dd3 	.word	0x10624dd3

08002a68 <HAL_I2C_Master_Transmit>:
 8002a68:	e92d 47f0 	stmdb	sp!, {r4, r5, r6, r7, r8, r9, sl, lr}
 8002a6c:	4604      	mov	r4, r0
 8002a6e:	b082      	sub	sp, #8
 8002a70:	4699      	mov	r9, r3
 8002a72:	460f      	mov	r7, r1
 8002a74:	4690      	mov	r8, r2
 8002a76:	9d0a      	ldr	r5, [sp, #40]	; 0x28
 8002a78:	f7ff fd70 	bl	800255c <HAL_GetTick>
 8002a7c:	f894 303d 	ldrb.w	r3, [r4, #61]	; 0x3d
 8002a80:	2b20      	cmp	r3, #32
 8002a82:	d003      	beq.n	8002a8c <HAL_I2C_Master_Transmit+0x24>
 8002a84:	2002      	movs	r0, #2
 8002a86:	b002      	add	sp, #8
 8002a88:	e8bd 87f0 	ldmia.w	sp!, {r4, r5, r6, r7, r8, r9, sl, pc}
 8002a8c:	4606      	mov	r6, r0
 8002a8e:	e005      	b.n	8002a9c <HAL_I2C_Master_Transmit+0x34>
 8002a90:	f7ff fd64 	bl	800255c <HAL_GetTick>
 8002a94:	1b80      	subs	r0, r0, r6
 8002a96:	2819      	cmp	r0, #25
 8002a98:	f200 80cb 	bhi.w	8002c32 <HAL_I2C_Master_Transmit+0x1ca>
 8002a9c:	6823      	ldr	r3, [r4, #0]
 8002a9e:	699a      	ldr	r2, [r3, #24]
 8002aa0:	43d2      	mvns	r2, r2
 8002aa2:	f012 0a02 	ands.w	sl, r2, #2
 8002aa6:	d0f3      	beq.n	8002a90 <HAL_I2C_Master_Transmit+0x28>
 8002aa8:	f894 203c 	ldrb.w	r2, [r4, #60]	; 0x3c
 8002aac:	2a01      	cmp	r2, #1
 8002aae:	d0e9      	beq.n	8002a84 <HAL_I2C_Master_Transmit+0x1c>
 8002ab0:	2101      	movs	r1, #1
 8002ab2:	681a      	ldr	r2, [r3, #0]
 8002ab4:	f884 103c 	strb.w	r1, [r4, #60]	; 0x3c
 8002ab8:	07d2      	lsls	r2, r2, #31
 8002aba:	d402      	bmi.n	8002ac2 <HAL_I2C_Master_Transmit+0x5a>
 8002abc:	681a      	ldr	r2, [r3, #0]
 8002abe:	430a      	orrs	r2, r1
 8002ac0:	601a      	str	r2, [r3, #0]
 8002ac2:	2100      	movs	r1, #0
 8002ac4:	f04f 0c21 	mov.w	ip, #33	; 0x21
 8002ac8:	2010      	movs	r0, #16
 8002aca:	681a      	ldr	r2, [r3, #0]
 8002acc:	f422 6200 	bic.w	r2, r2, #2048	; 0x800
 8002ad0:	601a      	str	r2, [r3, #0]
 8002ad2:	4a9b      	ldr	r2, [pc, #620]	; (8002d40 <HAL_I2C_Master_Transmit+0x2d8>)
 8002ad4:	f884 c03d 	strb.w	ip, [r4, #61]	; 0x3d
 8002ad8:	f884 003e 	strb.w	r0, [r4, #62]	; 0x3e
 8002adc:	6421      	str	r1, [r4, #64]	; 0x40
 8002ade:	f8a4 902a 	strh.w	r9, [r4, #42]	; 0x2a
 8002ae2:	8d61      	ldrh	r1, [r4, #42]	; 0x2a
 8002ae4:	62e2      	str	r2, [r4, #44]	; 0x2c
 8002ae6:	6ae2      	ldr	r2, [r4, #44]	; 0x2c
 8002ae8:	f8c4 8024 	str.w	r8, [r4, #36]	; 0x24
 8002aec:	2a08      	cmp	r2, #8
 8002aee:	8521      	strh	r1, [r4, #40]	; 0x28
 8002af0:	d070      	beq.n	8002bd4 <HAL_I2C_Master_Transmit+0x16c>
 8002af2:	2a01      	cmp	r2, #1
 8002af4:	d06e      	beq.n	8002bd4 <HAL_I2C_Master_Transmit+0x16c>
 8002af6:	f512 3f80 	cmn.w	r2, #65536	; 0x10000
 8002afa:	d06b      	beq.n	8002bd4 <HAL_I2C_Master_Transmit+0x16c>
 8002afc:	6b22      	ldr	r2, [r4, #48]	; 0x30
 8002afe:	2a12      	cmp	r2, #18
 8002b00:	d068      	beq.n	8002bd4 <HAL_I2C_Master_Transmit+0x16c>
 8002b02:	1c68      	adds	r0, r5, #1
 8002b04:	f040 8089 	bne.w	8002c1a <HAL_I2C_Master_Transmit+0x1b2>
 8002b08:	695a      	ldr	r2, [r3, #20]
 8002b0a:	07d1      	lsls	r1, r2, #31
 8002b0c:	d5fc      	bpl.n	8002b08 <HAL_I2C_Master_Transmit+0xa0>
 8002b0e:	6922      	ldr	r2, [r4, #16]
 8002b10:	f5b2 4f80 	cmp.w	r2, #16384	; 0x4000
 8002b14:	f040 80c0 	bne.w	8002c98 <HAL_I2C_Master_Transmit+0x230>
 8002b18:	f007 07fe 	and.w	r7, r7, #254	; 0xfe
 8002b1c:	611f      	str	r7, [r3, #16]
 8002b1e:	1c6f      	adds	r7, r5, #1
 8002b20:	d004      	beq.n	8002b2c <HAL_I2C_Master_Transmit+0xc4>
 8002b22:	e0e0      	b.n	8002ce6 <HAL_I2C_Master_Transmit+0x27e>
 8002b24:	695a      	ldr	r2, [r3, #20]
 8002b26:	0551      	lsls	r1, r2, #21
 8002b28:	f100 80a0 	bmi.w	8002c6c <HAL_I2C_Master_Transmit+0x204>
 8002b2c:	695a      	ldr	r2, [r3, #20]
 8002b2e:	0790      	lsls	r0, r2, #30
 8002b30:	d5f8      	bpl.n	8002b24 <HAL_I2C_Master_Transmit+0xbc>
 8002b32:	2200      	movs	r2, #0
 8002b34:	9201      	str	r2, [sp, #4]
 8002b36:	695a      	ldr	r2, [r3, #20]
 8002b38:	9201      	str	r2, [sp, #4]
 8002b3a:	699a      	ldr	r2, [r3, #24]
 8002b3c:	9201      	str	r2, [sp, #4]
 8002b3e:	9a01      	ldr	r2, [sp, #4]
 8002b40:	8d22      	ldrh	r2, [r4, #40]	; 0x28
 8002b42:	2a00      	cmp	r2, #0
 8002b44:	f000 80df 	beq.w	8002d06 <HAL_I2C_Master_Transmit+0x29e>
 8002b48:	1c68      	adds	r0, r5, #1
 8002b4a:	d003      	beq.n	8002b54 <HAL_I2C_Master_Transmit+0xec>
 8002b4c:	e047      	b.n	8002bde <HAL_I2C_Master_Transmit+0x176>
 8002b4e:	695a      	ldr	r2, [r3, #20]
 8002b50:	0552      	lsls	r2, r2, #21
 8002b52:	d42a      	bmi.n	8002baa <HAL_I2C_Master_Transmit+0x142>
 8002b54:	695a      	ldr	r2, [r3, #20]
 8002b56:	0611      	lsls	r1, r2, #24
 8002b58:	d5f9      	bpl.n	8002b4e <HAL_I2C_Master_Transmit+0xe6>
 8002b5a:	6a67      	ldr	r7, [r4, #36]	; 0x24
 8002b5c:	f8b4 c028 	ldrh.w	ip, [r4, #40]	; 0x28
 8002b60:	4638      	mov	r0, r7
 8002b62:	f810 2b01 	ldrb.w	r2, [r0], #1
 8002b66:	f10c 31ff 	add.w	r1, ip, #4294967295
 8002b6a:	611a      	str	r2, [r3, #16]
 8002b6c:	8d62      	ldrh	r2, [r4, #42]	; 0x2a
 8002b6e:	b289      	uxth	r1, r1
 8002b70:	3a01      	subs	r2, #1
 8002b72:	b292      	uxth	r2, r2
 8002b74:	8562      	strh	r2, [r4, #42]	; 0x2a
 8002b76:	695a      	ldr	r2, [r3, #20]
 8002b78:	6260      	str	r0, [r4, #36]	; 0x24
 8002b7a:	0750      	lsls	r0, r2, #29
 8002b7c:	8521      	strh	r1, [r4, #40]	; 0x28
 8002b7e:	d50c      	bpl.n	8002b9a <HAL_I2C_Master_Transmit+0x132>
 8002b80:	b159      	cbz	r1, 8002b9a <HAL_I2C_Master_Transmit+0x132>
 8002b82:	787a      	ldrb	r2, [r7, #1]
 8002b84:	f1ac 0c02 	sub.w	ip, ip, #2
 8002b88:	611a      	str	r2, [r3, #16]
 8002b8a:	8d62      	ldrh	r2, [r4, #42]	; 0x2a
 8002b8c:	3702      	adds	r7, #2
 8002b8e:	3a01      	subs	r2, #1
 8002b90:	b292      	uxth	r2, r2
 8002b92:	f8a4 c028 	strh.w	ip, [r4, #40]	; 0x28
 8002b96:	6267      	str	r7, [r4, #36]	; 0x24
 8002b98:	8562      	strh	r2, [r4, #42]	; 0x2a
 8002b9a:	1c6f      	adds	r7, r5, #1
 8002b9c:	d12e      	bne.n	8002bfc <HAL_I2C_Master_Transmit+0x194>
 8002b9e:	695a      	ldr	r2, [r3, #20]
 8002ba0:	0750      	lsls	r0, r2, #29
 8002ba2:	d4cd      	bmi.n	8002b40 <HAL_I2C_Master_Transmit+0xd8>
 8002ba4:	695a      	ldr	r2, [r3, #20]
 8002ba6:	0551      	lsls	r1, r2, #21
 8002ba8:	d5f9      	bpl.n	8002b9e <HAL_I2C_Master_Transmit+0x136>
 8002baa:	2200      	movs	r2, #0
 8002bac:	f46f 6080 	mvn.w	r0, #1024	; 0x400
 8002bb0:	2120      	movs	r1, #32
 8002bb2:	6158      	str	r0, [r3, #20]
 8002bb4:	6322      	str	r2, [r4, #48]	; 0x30
 8002bb6:	f884 103d 	strb.w	r1, [r4, #61]	; 0x3d
 8002bba:	f884 203e 	strb.w	r2, [r4, #62]	; 0x3e
 8002bbe:	6c23      	ldr	r3, [r4, #64]	; 0x40
 8002bc0:	f884 203c 	strb.w	r2, [r4, #60]	; 0x3c
 8002bc4:	f043 0304 	orr.w	r3, r3, #4
 8002bc8:	6423      	str	r3, [r4, #64]	; 0x40
 8002bca:	6c23      	ldr	r3, [r4, #64]	; 0x40
 8002bcc:	2b04      	cmp	r3, #4
 8002bce:	d075      	beq.n	8002cbc <HAL_I2C_Master_Transmit+0x254>
 8002bd0:	2001      	movs	r0, #1
 8002bd2:	e758      	b.n	8002a86 <HAL_I2C_Master_Transmit+0x1e>
 8002bd4:	681a      	ldr	r2, [r3, #0]
 8002bd6:	f442 7280 	orr.w	r2, r2, #256	; 0x100
 8002bda:	601a      	str	r2, [r3, #0]
 8002bdc:	e791      	b.n	8002b02 <HAL_I2C_Master_Transmit+0x9a>
 8002bde:	695a      	ldr	r2, [r3, #20]
 8002be0:	0617      	lsls	r7, r2, #24
 8002be2:	d4ba      	bmi.n	8002b5a <HAL_I2C_Master_Transmit+0xf2>
 8002be4:	695a      	ldr	r2, [r3, #20]
 8002be6:	0557      	lsls	r7, r2, #21
 8002be8:	d4df      	bmi.n	8002baa <HAL_I2C_Master_Transmit+0x142>
 8002bea:	f7ff fcb7 	bl	800255c <HAL_GetTick>
 8002bee:	1b80      	subs	r0, r0, r6
 8002bf0:	4285      	cmp	r5, r0
 8002bf2:	d36a      	bcc.n	8002cca <HAL_I2C_Master_Transmit+0x262>
 8002bf4:	2d00      	cmp	r5, #0
 8002bf6:	d068      	beq.n	8002cca <HAL_I2C_Master_Transmit+0x262>
 8002bf8:	6823      	ldr	r3, [r4, #0]
 8002bfa:	e7a5      	b.n	8002b48 <HAL_I2C_Master_Transmit+0xe0>
 8002bfc:	695a      	ldr	r2, [r3, #20]
 8002bfe:	0752      	lsls	r2, r2, #29
 8002c00:	d49e      	bmi.n	8002b40 <HAL_I2C_Master_Transmit+0xd8>
 8002c02:	695a      	ldr	r2, [r3, #20]
 8002c04:	0552      	lsls	r2, r2, #21
 8002c06:	d4d0      	bmi.n	8002baa <HAL_I2C_Master_Transmit+0x142>
 8002c08:	f7ff fca8 	bl	800255c <HAL_GetTick>
 8002c0c:	1b80      	subs	r0, r0, r6
 8002c0e:	4285      	cmp	r5, r0
 8002c10:	d35b      	bcc.n	8002cca <HAL_I2C_Master_Transmit+0x262>
 8002c12:	2d00      	cmp	r5, #0
 8002c14:	d059      	beq.n	8002cca <HAL_I2C_Master_Transmit+0x262>
 8002c16:	6823      	ldr	r3, [r4, #0]
 8002c18:	e7bf      	b.n	8002b9a <HAL_I2C_Master_Transmit+0x132>
 8002c1a:	695a      	ldr	r2, [r3, #20]
 8002c1c:	07d2      	lsls	r2, r2, #31
 8002c1e:	f53f af76 	bmi.w	8002b0e <HAL_I2C_Master_Transmit+0xa6>
 8002c22:	f7ff fc9b 	bl	800255c <HAL_GetTick>
 8002c26:	1b80      	subs	r0, r0, r6
 8002c28:	4285      	cmp	r5, r0
 8002c2a:	d310      	bcc.n	8002c4e <HAL_I2C_Master_Transmit+0x1e6>
 8002c2c:	b17d      	cbz	r5, 8002c4e <HAL_I2C_Master_Transmit+0x1e6>
 8002c2e:	6823      	ldr	r3, [r4, #0]
 8002c30:	e767      	b.n	8002b02 <HAL_I2C_Master_Transmit+0x9a>
 8002c32:	2320      	movs	r3, #32
 8002c34:	f8c4 a030 	str.w	sl, [r4, #48]	; 0x30
 8002c38:	f884 303d 	strb.w	r3, [r4, #61]	; 0x3d
 8002c3c:	f884 a03e 	strb.w	sl, [r4, #62]	; 0x3e
 8002c40:	6c23      	ldr	r3, [r4, #64]	; 0x40
 8002c42:	f884 a03c 	strb.w	sl, [r4, #60]	; 0x3c
 8002c46:	f043 0320 	orr.w	r3, r3, #32
 8002c4a:	6423      	str	r3, [r4, #64]	; 0x40
 8002c4c:	e71a      	b.n	8002a84 <HAL_I2C_Master_Transmit+0x1c>
 8002c4e:	2200      	movs	r2, #0
 8002c50:	2320      	movs	r3, #32
 8002c52:	6322      	str	r2, [r4, #48]	; 0x30
 8002c54:	f884 303d 	strb.w	r3, [r4, #61]	; 0x3d
 8002c58:	f884 203e 	strb.w	r2, [r4, #62]	; 0x3e
 8002c5c:	6c23      	ldr	r3, [r4, #64]	; 0x40
 8002c5e:	f884 203c 	strb.w	r2, [r4, #60]	; 0x3c
 8002c62:	f043 0320 	orr.w	r3, r3, #32
 8002c66:	6423      	str	r3, [r4, #64]	; 0x40
 8002c68:	2001      	movs	r0, #1
 8002c6a:	e70c      	b.n	8002a86 <HAL_I2C_Master_Transmit+0x1e>
 8002c6c:	2200      	movs	r2, #0
 8002c6e:	2020      	movs	r0, #32
 8002c70:	f46f 6580 	mvn.w	r5, #1024	; 0x400
 8002c74:	6819      	ldr	r1, [r3, #0]
 8002c76:	f441 7100 	orr.w	r1, r1, #512	; 0x200
 8002c7a:	6019      	str	r1, [r3, #0]
 8002c7c:	615d      	str	r5, [r3, #20]
 8002c7e:	6322      	str	r2, [r4, #48]	; 0x30
 8002c80:	f884 003d 	strb.w	r0, [r4, #61]	; 0x3d
 8002c84:	f884 203e 	strb.w	r2, [r4, #62]	; 0x3e
 8002c88:	6c23      	ldr	r3, [r4, #64]	; 0x40
 8002c8a:	f884 203c 	strb.w	r2, [r4, #60]	; 0x3c
 8002c8e:	f043 0304 	orr.w	r3, r3, #4
 8002c92:	6423      	str	r3, [r4, #64]	; 0x40
 8002c94:	2001      	movs	r0, #1
 8002c96:	e6f6      	b.n	8002a86 <HAL_I2C_Master_Transmit+0x1e>
 8002c98:	11fa      	asrs	r2, r7, #7
 8002c9a:	f002 0206 	and.w	r2, r2, #6
 8002c9e:	f042 02f0 	orr.w	r2, r2, #240	; 0xf0
 8002ca2:	611a      	str	r2, [r3, #16]
 8002ca4:	1c69      	adds	r1, r5, #1
 8002ca6:	d003      	beq.n	8002cb0 <HAL_I2C_Master_Transmit+0x248>
 8002ca8:	e03a      	b.n	8002d20 <HAL_I2C_Master_Transmit+0x2b8>
 8002caa:	695a      	ldr	r2, [r3, #20]
 8002cac:	0550      	lsls	r0, r2, #21
 8002cae:	d4dd      	bmi.n	8002c6c <HAL_I2C_Master_Transmit+0x204>
 8002cb0:	695a      	ldr	r2, [r3, #20]
 8002cb2:	0712      	lsls	r2, r2, #28
 8002cb4:	d5f9      	bpl.n	8002caa <HAL_I2C_Master_Transmit+0x242>
 8002cb6:	b2ff      	uxtb	r7, r7
 8002cb8:	611f      	str	r7, [r3, #16]
 8002cba:	e730      	b.n	8002b1e <HAL_I2C_Master_Transmit+0xb6>
 8002cbc:	6822      	ldr	r2, [r4, #0]
 8002cbe:	2001      	movs	r0, #1
 8002cc0:	6813      	ldr	r3, [r2, #0]
 8002cc2:	f443 7300 	orr.w	r3, r3, #512	; 0x200
 8002cc6:	6013      	str	r3, [r2, #0]
 8002cc8:	e6dd      	b.n	8002a86 <HAL_I2C_Master_Transmit+0x1e>
 8002cca:	2200      	movs	r2, #0
 8002ccc:	2320      	movs	r3, #32
 8002cce:	6322      	str	r2, [r4, #48]	; 0x30
 8002cd0:	f884 303d 	strb.w	r3, [r4, #61]	; 0x3d
 8002cd4:	f884 203e 	strb.w	r2, [r4, #62]	; 0x3e
 8002cd8:	6c23      	ldr	r3, [r4, #64]	; 0x40
 8002cda:	f884 203c 	strb.w	r2, [r4, #60]	; 0x3c
 8002cde:	f043 0320 	orr.w	r3, r3, #32
 8002ce2:	6423      	str	r3, [r4, #64]	; 0x40
 8002ce4:	e771      	b.n	8002bca <HAL_I2C_Master_Transmit+0x162>
 8002ce6:	695a      	ldr	r2, [r3, #20]
 8002ce8:	0792      	lsls	r2, r2, #30
 8002cea:	f53f af22 	bmi.w	8002b32 <HAL_I2C_Master_Transmit+0xca>
 8002cee:	695a      	ldr	r2, [r3, #20]
 8002cf0:	0552      	lsls	r2, r2, #21
 8002cf2:	d4bb      	bmi.n	8002c6c <HAL_I2C_Master_Transmit+0x204>
 8002cf4:	f7ff fc32 	bl	800255c <HAL_GetTick>
 8002cf8:	1b80      	subs	r0, r0, r6
 8002cfa:	4285      	cmp	r5, r0
 8002cfc:	d3a7      	bcc.n	8002c4e <HAL_I2C_Master_Transmit+0x1e6>
 8002cfe:	2d00      	cmp	r5, #0
 8002d00:	d0a5      	beq.n	8002c4e <HAL_I2C_Master_Transmit+0x1e6>
 8002d02:	6823      	ldr	r3, [r4, #0]
 8002d04:	e70b      	b.n	8002b1e <HAL_I2C_Master_Transmit+0xb6>
 8002d06:	2520      	movs	r5, #32
 8002d08:	6819      	ldr	r1, [r3, #0]
 8002d0a:	4610      	mov	r0, r2
 8002d0c:	f441 7100 	orr.w	r1, r1, #512	; 0x200
 8002d10:	6019      	str	r1, [r3, #0]
 8002d12:	f884 503d 	strb.w	r5, [r4, #61]	; 0x3d
 8002d16:	f884 203c 	strb.w	r2, [r4, #60]	; 0x3c
 8002d1a:	f884 203e 	strb.w	r2, [r4, #62]	; 0x3e
 8002d1e:	e6b2      	b.n	8002a86 <HAL_I2C_Master_Transmit+0x1e>
 8002d20:	695a      	ldr	r2, [r3, #20]
 8002d22:	0711      	lsls	r1, r2, #28
 8002d24:	d4c7      	bmi.n	8002cb6 <HAL_I2C_Master_Transmit+0x24e>
 8002d26:	695a      	ldr	r2, [r3, #20]
 8002d28:	0550      	lsls	r0, r2, #21
 8002d2a:	d49f      	bmi.n	8002c6c <HAL_I2C_Master_Transmit+0x204>
 8002d2c:	f7ff fc16 	bl	800255c <HAL_GetTick>
 8002d30:	1b80      	subs	r0, r0, r6
 8002d32:	4285      	cmp	r5, r0
 8002d34:	d38b      	bcc.n	8002c4e <HAL_I2C_Master_Transmit+0x1e6>
 8002d36:	2d00      	cmp	r5, #0
 8002d38:	d089      	beq.n	8002c4e <HAL_I2C_Master_Transmit+0x1e6>
 8002d3a:	6823      	ldr	r3, [r4, #0]
 8002d3c:	e7b2      	b.n	8002ca4 <HAL_I2C_Master_Transmit+0x23c>
 8002d3e:	bf00      	nop
 8002d40:	ffff0000 	.word	0xffff0000

08002d44 <HAL_I2C_Master_Receive>:
 8002d44:	e92d 47f0 	stmdb	sp!, {r4, r5, r6, r7, r8, r9, sl, lr}
 8002d48:	4604      	mov	r4, r0
 8002d4a:	b086      	sub	sp, #24
 8002d4c:	4699      	mov	r9, r3
 8002d4e:	460f      	mov	r7, r1
 8002d50:	4690      	mov	r8, r2
 8002d52:	9d0e      	ldr	r5, [sp, #56]	; 0x38
 8002d54:	f7ff fc02 	bl	800255c <HAL_GetTick>
 8002d58:	f894 303d 	ldrb.w	r3, [r4, #61]	; 0x3d
 8002d5c:	2b20      	cmp	r3, #32
 8002d5e:	d003      	beq.n	8002d68 <HAL_I2C_Master_Receive+0x24>
 8002d60:	2002      	movs	r0, #2
 8002d62:	b006      	add	sp, #24
 8002d64:	e8bd 87f0 	ldmia.w	sp!, {r4, r5, r6, r7, r8, r9, sl, pc}
 8002d68:	4606      	mov	r6, r0
 8002d6a:	e005      	b.n	8002d78 <HAL_I2C_Master_Receive+0x34>
 8002d6c:	f7ff fbf6 	bl	800255c <HAL_GetTick>
 8002d70:	1b80      	subs	r0, r0, r6
 8002d72:	2819      	cmp	r0, #25
 8002d74:	f200 8091 	bhi.w	8002e9a <HAL_I2C_Master_Receive+0x156>
 8002d78:	6822      	ldr	r2, [r4, #0]
 8002d7a:	6993      	ldr	r3, [r2, #24]
 8002d7c:	43db      	mvns	r3, r3
 8002d7e:	f013 0a02 	ands.w	sl, r3, #2
 8002d82:	d0f3      	beq.n	8002d6c <HAL_I2C_Master_Receive+0x28>
 8002d84:	f894 303c 	ldrb.w	r3, [r4, #60]	; 0x3c
 8002d88:	2b01      	cmp	r3, #1
 8002d8a:	d0e9      	beq.n	8002d60 <HAL_I2C_Master_Receive+0x1c>
 8002d8c:	2101      	movs	r1, #1
 8002d8e:	6813      	ldr	r3, [r2, #0]
 8002d90:	f884 103c 	strb.w	r1, [r4, #60]	; 0x3c
 8002d94:	07d8      	lsls	r0, r3, #31
 8002d96:	d402      	bmi.n	8002d9e <HAL_I2C_Master_Receive+0x5a>
 8002d98:	6813      	ldr	r3, [r2, #0]
 8002d9a:	430b      	orrs	r3, r1
 8002d9c:	6013      	str	r3, [r2, #0]
 8002d9e:	2010      	movs	r0, #16
 8002da0:	2100      	movs	r1, #0
 8002da2:	f04f 0c22 	mov.w	ip, #34	; 0x22
 8002da6:	6813      	ldr	r3, [r2, #0]
 8002da8:	f423 6300 	bic.w	r3, r3, #2048	; 0x800
 8002dac:	6013      	str	r3, [r2, #0]
 8002dae:	4b95      	ldr	r3, [pc, #596]	; (8003004 <HAL_I2C_Master_Receive+0x2c0>)
 8002db0:	f884 c03d 	strb.w	ip, [r4, #61]	; 0x3d
 8002db4:	f884 003e 	strb.w	r0, [r4, #62]	; 0x3e
 8002db8:	6421      	str	r1, [r4, #64]	; 0x40
 8002dba:	f8a4 902a 	strh.w	r9, [r4, #42]	; 0x2a
 8002dbe:	8d60      	ldrh	r0, [r4, #42]	; 0x2a
 8002dc0:	62e3      	str	r3, [r4, #44]	; 0x2c
 8002dc2:	6ae1      	ldr	r1, [r4, #44]	; 0x2c
 8002dc4:	6813      	ldr	r3, [r2, #0]
 8002dc6:	2908      	cmp	r1, #8
 8002dc8:	f443 6380 	orr.w	r3, r3, #1024	; 0x400
 8002dcc:	f8c4 8024 	str.w	r8, [r4, #36]	; 0x24
 8002dd0:	8520      	strh	r0, [r4, #40]	; 0x28
 8002dd2:	6013      	str	r3, [r2, #0]
 8002dd4:	d035      	beq.n	8002e42 <HAL_I2C_Master_Receive+0xfe>
 8002dd6:	2901      	cmp	r1, #1
 8002dd8:	d033      	beq.n	8002e42 <HAL_I2C_Master_Receive+0xfe>
 8002dda:	f511 3f80 	cmn.w	r1, #65536	; 0x10000
 8002dde:	d030      	beq.n	8002e42 <HAL_I2C_Master_Receive+0xfe>
 8002de0:	6b23      	ldr	r3, [r4, #48]	; 0x30
 8002de2:	2b11      	cmp	r3, #17
 8002de4:	d02d      	beq.n	8002e42 <HAL_I2C_Master_Receive+0xfe>
 8002de6:	1c69      	adds	r1, r5, #1
 8002de8:	d130      	bne.n	8002e4c <HAL_I2C_Master_Receive+0x108>
 8002dea:	6953      	ldr	r3, [r2, #20]
 8002dec:	07db      	lsls	r3, r3, #31
 8002dee:	d5fc      	bpl.n	8002dea <HAL_I2C_Master_Receive+0xa6>
 8002df0:	6923      	ldr	r3, [r4, #16]
 8002df2:	f5b3 4f80 	cmp.w	r3, #16384	; 0x4000
 8002df6:	f040 80d3 	bne.w	8002fa0 <HAL_I2C_Master_Receive+0x25c>
 8002dfa:	f047 0301 	orr.w	r3, r7, #1
 8002dfe:	b2db      	uxtb	r3, r3
 8002e00:	6113      	str	r3, [r2, #16]
 8002e02:	1c69      	adds	r1, r5, #1
 8002e04:	d003      	beq.n	8002e0e <HAL_I2C_Master_Receive+0xca>
 8002e06:	e1b0      	b.n	800316a <HAL_I2C_Master_Receive+0x426>
 8002e08:	6953      	ldr	r3, [r2, #20]
 8002e0a:	055f      	lsls	r7, r3, #21
 8002e0c:	d453      	bmi.n	8002eb6 <HAL_I2C_Master_Receive+0x172>
 8002e0e:	6953      	ldr	r3, [r2, #20]
 8002e10:	079b      	lsls	r3, r3, #30
 8002e12:	d5f9      	bpl.n	8002e08 <HAL_I2C_Master_Receive+0xc4>
 8002e14:	8d23      	ldrh	r3, [r4, #40]	; 0x28
 8002e16:	2b00      	cmp	r3, #0
 8002e18:	d163      	bne.n	8002ee2 <HAL_I2C_Master_Receive+0x19e>
 8002e1a:	9301      	str	r3, [sp, #4]
 8002e1c:	6953      	ldr	r3, [r2, #20]
 8002e1e:	9301      	str	r3, [sp, #4]
 8002e20:	6993      	ldr	r3, [r2, #24]
 8002e22:	9301      	str	r3, [sp, #4]
 8002e24:	9b01      	ldr	r3, [sp, #4]
 8002e26:	6813      	ldr	r3, [r2, #0]
 8002e28:	f443 7300 	orr.w	r3, r3, #512	; 0x200
 8002e2c:	6013      	str	r3, [r2, #0]
 8002e2e:	2300      	movs	r3, #0
 8002e30:	2220      	movs	r2, #32
 8002e32:	4618      	mov	r0, r3
 8002e34:	f884 203d 	strb.w	r2, [r4, #61]	; 0x3d
 8002e38:	f884 303c 	strb.w	r3, [r4, #60]	; 0x3c
 8002e3c:	f884 303e 	strb.w	r3, [r4, #62]	; 0x3e
 8002e40:	e78f      	b.n	8002d62 <HAL_I2C_Master_Receive+0x1e>
 8002e42:	6813      	ldr	r3, [r2, #0]
 8002e44:	f443 7380 	orr.w	r3, r3, #256	; 0x100
 8002e48:	6013      	str	r3, [r2, #0]
 8002e4a:	e7cc      	b.n	8002de6 <HAL_I2C_Master_Receive+0xa2>
 8002e4c:	6953      	ldr	r3, [r2, #20]
 8002e4e:	07d8      	lsls	r0, r3, #31
 8002e50:	d4ce      	bmi.n	8002df0 <HAL_I2C_Master_Receive+0xac>
 8002e52:	f7ff fb83 	bl	800255c <HAL_GetTick>
 8002e56:	1b80      	subs	r0, r0, r6
 8002e58:	4285      	cmp	r5, r0
 8002e5a:	d30d      	bcc.n	8002e78 <HAL_I2C_Master_Receive+0x134>
 8002e5c:	b165      	cbz	r5, 8002e78 <HAL_I2C_Master_Receive+0x134>
 8002e5e:	6822      	ldr	r2, [r4, #0]
 8002e60:	e7c1      	b.n	8002de6 <HAL_I2C_Master_Receive+0xa2>
 8002e62:	6823      	ldr	r3, [r4, #0]
 8002e64:	695a      	ldr	r2, [r3, #20]
 8002e66:	0657      	lsls	r7, r2, #25
 8002e68:	f100 8117 	bmi.w	800309a <HAL_I2C_Master_Receive+0x356>
 8002e6c:	695a      	ldr	r2, [r3, #20]
 8002e6e:	06d0      	lsls	r0, r2, #27
 8002e70:	f100 8163 	bmi.w	800313a <HAL_I2C_Master_Receive+0x3f6>
 8002e74:	f7ff fb72 	bl	800255c <HAL_GetTick>
 8002e78:	2200      	movs	r2, #0
 8002e7a:	2320      	movs	r3, #32
 8002e7c:	2001      	movs	r0, #1
 8002e7e:	6322      	str	r2, [r4, #48]	; 0x30
 8002e80:	f884 303d 	strb.w	r3, [r4, #61]	; 0x3d
 8002e84:	f884 203e 	strb.w	r2, [r4, #62]	; 0x3e
 8002e88:	6c23      	ldr	r3, [r4, #64]	; 0x40
 8002e8a:	f884 203c 	strb.w	r2, [r4, #60]	; 0x3c
 8002e8e:	f043 0320 	orr.w	r3, r3, #32
 8002e92:	6423      	str	r3, [r4, #64]	; 0x40
 8002e94:	b006      	add	sp, #24
 8002e96:	e8bd 87f0 	ldmia.w	sp!, {r4, r5, r6, r7, r8, r9, sl, pc}
 8002e9a:	2320      	movs	r3, #32
 8002e9c:	f8c4 a030 	str.w	sl, [r4, #48]	; 0x30
 8002ea0:	f884 303d 	strb.w	r3, [r4, #61]	; 0x3d
 8002ea4:	f884 a03e 	strb.w	sl, [r4, #62]	; 0x3e
 8002ea8:	6c23      	ldr	r3, [r4, #64]	; 0x40
 8002eaa:	f884 a03c 	strb.w	sl, [r4, #60]	; 0x3c
 8002eae:	f043 0320 	orr.w	r3, r3, #32
 8002eb2:	6423      	str	r3, [r4, #64]	; 0x40
 8002eb4:	e754      	b.n	8002d60 <HAL_I2C_Master_Receive+0x1c>
 8002eb6:	2100      	movs	r1, #0
 8002eb8:	2020      	movs	r0, #32
 8002eba:	f46f 6580 	mvn.w	r5, #1024	; 0x400
 8002ebe:	6813      	ldr	r3, [r2, #0]
 8002ec0:	f443 7300 	orr.w	r3, r3, #512	; 0x200
 8002ec4:	6013      	str	r3, [r2, #0]
 8002ec6:	6155      	str	r5, [r2, #20]
 8002ec8:	6321      	str	r1, [r4, #48]	; 0x30
 8002eca:	f884 003d 	strb.w	r0, [r4, #61]	; 0x3d
 8002ece:	f884 103e 	strb.w	r1, [r4, #62]	; 0x3e
 8002ed2:	6c23      	ldr	r3, [r4, #64]	; 0x40
 8002ed4:	f884 103c 	strb.w	r1, [r4, #60]	; 0x3c
 8002ed8:	f043 0304 	orr.w	r3, r3, #4
 8002edc:	6423      	str	r3, [r4, #64]	; 0x40
 8002ede:	2001      	movs	r0, #1
 8002ee0:	e73f      	b.n	8002d62 <HAL_I2C_Master_Receive+0x1e>
 8002ee2:	2b01      	cmp	r3, #1
 8002ee4:	f000 80b6 	beq.w	8003054 <HAL_I2C_Master_Receive+0x310>
 8002ee8:	2b02      	cmp	r3, #2
 8002eea:	f000 8164 	beq.w	80031b6 <HAL_I2C_Master_Receive+0x472>
 8002eee:	2000      	movs	r0, #0
 8002ef0:	6811      	ldr	r1, [r2, #0]
 8002ef2:	f441 6180 	orr.w	r1, r1, #1024	; 0x400
 8002ef6:	6011      	str	r1, [r2, #0]
 8002ef8:	9004      	str	r0, [sp, #16]
 8002efa:	6951      	ldr	r1, [r2, #20]
 8002efc:	9104      	str	r1, [sp, #16]
 8002efe:	6992      	ldr	r2, [r2, #24]
 8002f00:	9204      	str	r2, [sp, #16]
 8002f02:	9a04      	ldr	r2, [sp, #16]
 8002f04:	2b00      	cmp	r3, #0
 8002f06:	d092      	beq.n	8002e2e <HAL_I2C_Master_Receive+0xea>
 8002f08:	2b03      	cmp	r3, #3
 8002f0a:	f200 80b7 	bhi.w	800307c <HAL_I2C_Master_Receive+0x338>
 8002f0e:	2b01      	cmp	r3, #1
 8002f10:	f000 8100 	beq.w	8003114 <HAL_I2C_Master_Receive+0x3d0>
 8002f14:	2b02      	cmp	r3, #2
 8002f16:	f000 8083 	beq.w	8003020 <HAL_I2C_Master_Receive+0x2dc>
 8002f1a:	1c6b      	adds	r3, r5, #1
 8002f1c:	6822      	ldr	r2, [r4, #0]
 8002f1e:	f040 80dd 	bne.w	80030dc <HAL_I2C_Master_Receive+0x398>
 8002f22:	6953      	ldr	r3, [r2, #20]
 8002f24:	075f      	lsls	r7, r3, #29
 8002f26:	d5fc      	bpl.n	8002f22 <HAL_I2C_Master_Receive+0x1de>
 8002f28:	6813      	ldr	r3, [r2, #0]
 8002f2a:	f423 6380 	bic.w	r3, r3, #1024	; 0x400
 8002f2e:	6013      	str	r3, [r2, #0]
 8002f30:	b672      	cpsid	i
 8002f32:	6822      	ldr	r2, [r4, #0]
 8002f34:	6a63      	ldr	r3, [r4, #36]	; 0x24
 8002f36:	6912      	ldr	r2, [r2, #16]
 8002f38:	701a      	strb	r2, [r3, #0]
 8002f3a:	8d63      	ldrh	r3, [r4, #42]	; 0x2a
 8002f3c:	6a61      	ldr	r1, [r4, #36]	; 0x24
 8002f3e:	8d22      	ldrh	r2, [r4, #40]	; 0x28
 8002f40:	3b01      	subs	r3, #1
 8002f42:	3101      	adds	r1, #1
 8002f44:	3a01      	subs	r2, #1
 8002f46:	b29b      	uxth	r3, r3
 8002f48:	6261      	str	r1, [r4, #36]	; 0x24
 8002f4a:	8522      	strh	r2, [r4, #40]	; 0x28
 8002f4c:	8563      	strh	r3, [r4, #42]	; 0x2a
 8002f4e:	1c69      	adds	r1, r5, #1
 8002f50:	6822      	ldr	r2, [r4, #0]
 8002f52:	f040 80d1 	bne.w	80030f8 <HAL_I2C_Master_Receive+0x3b4>
 8002f56:	6953      	ldr	r3, [r2, #20]
 8002f58:	075b      	lsls	r3, r3, #29
 8002f5a:	d5fc      	bpl.n	8002f56 <HAL_I2C_Master_Receive+0x212>
 8002f5c:	6813      	ldr	r3, [r2, #0]
 8002f5e:	6a61      	ldr	r1, [r4, #36]	; 0x24
 8002f60:	f443 7300 	orr.w	r3, r3, #512	; 0x200
 8002f64:	6013      	str	r3, [r2, #0]
 8002f66:	6913      	ldr	r3, [r2, #16]
 8002f68:	700b      	strb	r3, [r1, #0]
 8002f6a:	8d63      	ldrh	r3, [r4, #42]	; 0x2a
 8002f6c:	6a61      	ldr	r1, [r4, #36]	; 0x24
 8002f6e:	8d22      	ldrh	r2, [r4, #40]	; 0x28
 8002f70:	3b01      	subs	r3, #1
 8002f72:	b29b      	uxth	r3, r3
 8002f74:	3101      	adds	r1, #1
 8002f76:	3a01      	subs	r2, #1
 8002f78:	8563      	strh	r3, [r4, #42]	; 0x2a
 8002f7a:	6261      	str	r1, [r4, #36]	; 0x24
 8002f7c:	8522      	strh	r2, [r4, #40]	; 0x28
 8002f7e:	b662      	cpsie	i
 8002f80:	6822      	ldr	r2, [r4, #0]
 8002f82:	6a63      	ldr	r3, [r4, #36]	; 0x24
 8002f84:	6912      	ldr	r2, [r2, #16]
 8002f86:	701a      	strb	r2, [r3, #0]
 8002f88:	8d62      	ldrh	r2, [r4, #42]	; 0x2a
 8002f8a:	8d23      	ldrh	r3, [r4, #40]	; 0x28
 8002f8c:	6a61      	ldr	r1, [r4, #36]	; 0x24
 8002f8e:	3a01      	subs	r2, #1
 8002f90:	3b01      	subs	r3, #1
 8002f92:	3101      	adds	r1, #1
 8002f94:	b292      	uxth	r2, r2
 8002f96:	b29b      	uxth	r3, r3
 8002f98:	6261      	str	r1, [r4, #36]	; 0x24
 8002f9a:	8562      	strh	r2, [r4, #42]	; 0x2a
 8002f9c:	8523      	strh	r3, [r4, #40]	; 0x28
 8002f9e:	e7b1      	b.n	8002f04 <HAL_I2C_Master_Receive+0x1c0>
 8002fa0:	ea4f 18e7 	mov.w	r8, r7, asr #7
 8002fa4:	f008 0806 	and.w	r8, r8, #6
 8002fa8:	f048 03f0 	orr.w	r3, r8, #240	; 0xf0
 8002fac:	6113      	str	r3, [r2, #16]
 8002fae:	1c6b      	adds	r3, r5, #1
 8002fb0:	d004      	beq.n	8002fbc <HAL_I2C_Master_Receive+0x278>
 8002fb2:	e0ed      	b.n	8003190 <HAL_I2C_Master_Receive+0x44c>
 8002fb4:	6953      	ldr	r3, [r2, #20]
 8002fb6:	0559      	lsls	r1, r3, #21
 8002fb8:	f53f af7d 	bmi.w	8002eb6 <HAL_I2C_Master_Receive+0x172>
 8002fbc:	6953      	ldr	r3, [r2, #20]
 8002fbe:	0718      	lsls	r0, r3, #28
 8002fc0:	d5f8      	bpl.n	8002fb4 <HAL_I2C_Master_Receive+0x270>
 8002fc2:	b2ff      	uxtb	r7, r7
 8002fc4:	6117      	str	r7, [r2, #16]
 8002fc6:	1c69      	adds	r1, r5, #1
 8002fc8:	d004      	beq.n	8002fd4 <HAL_I2C_Master_Receive+0x290>
 8002fca:	e108      	b.n	80031de <HAL_I2C_Master_Receive+0x49a>
 8002fcc:	6953      	ldr	r3, [r2, #20]
 8002fce:	055f      	lsls	r7, r3, #21
 8002fd0:	f53f af71 	bmi.w	8002eb6 <HAL_I2C_Master_Receive+0x172>
 8002fd4:	6953      	ldr	r3, [r2, #20]
 8002fd6:	079b      	lsls	r3, r3, #30
 8002fd8:	d5f8      	bpl.n	8002fcc <HAL_I2C_Master_Receive+0x288>
 8002fda:	2300      	movs	r3, #0
 8002fdc:	9305      	str	r3, [sp, #20]
 8002fde:	6953      	ldr	r3, [r2, #20]
 8002fe0:	9305      	str	r3, [sp, #20]
 8002fe2:	6993      	ldr	r3, [r2, #24]
 8002fe4:	9305      	str	r3, [sp, #20]
 8002fe6:	9b05      	ldr	r3, [sp, #20]
 8002fe8:	6813      	ldr	r3, [r2, #0]
 8002fea:	f443 7380 	orr.w	r3, r3, #256	; 0x100
 8002fee:	6013      	str	r3, [r2, #0]
 8002ff0:	1c69      	adds	r1, r5, #1
 8002ff2:	f040 8107 	bne.w	8003204 <HAL_I2C_Master_Receive+0x4c0>
 8002ff6:	6953      	ldr	r3, [r2, #20]
 8002ff8:	07db      	lsls	r3, r3, #31
 8002ffa:	d5fc      	bpl.n	8002ff6 <HAL_I2C_Master_Receive+0x2b2>
 8002ffc:	f048 03f1 	orr.w	r3, r8, #241	; 0xf1
 8003000:	6113      	str	r3, [r2, #16]
 8003002:	e6fe      	b.n	8002e02 <HAL_I2C_Master_Receive+0xbe>
 8003004:	ffff0000 	.word	0xffff0000
 8003008:	6953      	ldr	r3, [r2, #20]
 800300a:	075a      	lsls	r2, r3, #29
 800300c:	d40e      	bmi.n	800302c <HAL_I2C_Master_Receive+0x2e8>
 800300e:	f7ff faa5 	bl	800255c <HAL_GetTick>
 8003012:	1b80      	subs	r0, r0, r6
 8003014:	4285      	cmp	r5, r0
 8003016:	f4ff af2f 	bcc.w	8002e78 <HAL_I2C_Master_Receive+0x134>
 800301a:	2d00      	cmp	r5, #0
 800301c:	f43f af2c 	beq.w	8002e78 <HAL_I2C_Master_Receive+0x134>
 8003020:	1c68      	adds	r0, r5, #1
 8003022:	6822      	ldr	r2, [r4, #0]
 8003024:	d1f0      	bne.n	8003008 <HAL_I2C_Master_Receive+0x2c4>
 8003026:	6953      	ldr	r3, [r2, #20]
 8003028:	0759      	lsls	r1, r3, #29
 800302a:	d5fc      	bpl.n	8003026 <HAL_I2C_Master_Receive+0x2e2>
 800302c:	b672      	cpsid	i
 800302e:	6823      	ldr	r3, [r4, #0]
 8003030:	6a61      	ldr	r1, [r4, #36]	; 0x24
 8003032:	681a      	ldr	r2, [r3, #0]
 8003034:	f442 7200 	orr.w	r2, r2, #512	; 0x200
 8003038:	601a      	str	r2, [r3, #0]
 800303a:	691b      	ldr	r3, [r3, #16]
 800303c:	700b      	strb	r3, [r1, #0]
 800303e:	8d63      	ldrh	r3, [r4, #42]	; 0x2a
 8003040:	6a61      	ldr	r1, [r4, #36]	; 0x24
 8003042:	8d22      	ldrh	r2, [r4, #40]	; 0x28
 8003044:	3b01      	subs	r3, #1
 8003046:	3101      	adds	r1, #1
 8003048:	3a01      	subs	r2, #1
 800304a:	b29b      	uxth	r3, r3
 800304c:	6261      	str	r1, [r4, #36]	; 0x24
 800304e:	8522      	strh	r2, [r4, #40]	; 0x28
 8003050:	8563      	strh	r3, [r4, #42]	; 0x2a
 8003052:	e794      	b.n	8002f7e <HAL_I2C_Master_Receive+0x23a>
 8003054:	6813      	ldr	r3, [r2, #0]
 8003056:	f423 6380 	bic.w	r3, r3, #1024	; 0x400
 800305a:	6013      	str	r3, [r2, #0]
 800305c:	b672      	cpsid	i
 800305e:	2200      	movs	r2, #0
 8003060:	6823      	ldr	r3, [r4, #0]
 8003062:	9202      	str	r2, [sp, #8]
 8003064:	695a      	ldr	r2, [r3, #20]
 8003066:	9202      	str	r2, [sp, #8]
 8003068:	699a      	ldr	r2, [r3, #24]
 800306a:	9202      	str	r2, [sp, #8]
 800306c:	9a02      	ldr	r2, [sp, #8]
 800306e:	681a      	ldr	r2, [r3, #0]
 8003070:	f442 7200 	orr.w	r2, r2, #512	; 0x200
 8003074:	601a      	str	r2, [r3, #0]
 8003076:	b662      	cpsie	i
 8003078:	8d23      	ldrh	r3, [r4, #40]	; 0x28
 800307a:	e743      	b.n	8002f04 <HAL_I2C_Master_Receive+0x1c0>
 800307c:	b94d      	cbnz	r5, 8003092 <HAL_I2C_Master_Receive+0x34e>
 800307e:	e6f0      	b.n	8002e62 <HAL_I2C_Master_Receive+0x11e>
 8003080:	695a      	ldr	r2, [r3, #20]
 8003082:	06d2      	lsls	r2, r2, #27
 8003084:	d459      	bmi.n	800313a <HAL_I2C_Master_Receive+0x3f6>
 8003086:	f7ff fa69 	bl	800255c <HAL_GetTick>
 800308a:	1b80      	subs	r0, r0, r6
 800308c:	4285      	cmp	r5, r0
 800308e:	f4ff aef3 	bcc.w	8002e78 <HAL_I2C_Master_Receive+0x134>
 8003092:	6823      	ldr	r3, [r4, #0]
 8003094:	695a      	ldr	r2, [r3, #20]
 8003096:	0651      	lsls	r1, r2, #25
 8003098:	d5f2      	bpl.n	8003080 <HAL_I2C_Master_Receive+0x33c>
 800309a:	691a      	ldr	r2, [r3, #16]
 800309c:	6a63      	ldr	r3, [r4, #36]	; 0x24
 800309e:	701a      	strb	r2, [r3, #0]
 80030a0:	8d62      	ldrh	r2, [r4, #42]	; 0x2a
 80030a2:	6821      	ldr	r1, [r4, #0]
 80030a4:	3a01      	subs	r2, #1
 80030a6:	b292      	uxth	r2, r2
 80030a8:	8d23      	ldrh	r3, [r4, #40]	; 0x28
 80030aa:	8562      	strh	r2, [r4, #42]	; 0x2a
 80030ac:	6948      	ldr	r0, [r1, #20]
 80030ae:	6a62      	ldr	r2, [r4, #36]	; 0x24
 80030b0:	3b01      	subs	r3, #1
 80030b2:	b29b      	uxth	r3, r3
 80030b4:	1c57      	adds	r7, r2, #1
 80030b6:	0740      	lsls	r0, r0, #29
 80030b8:	8523      	strh	r3, [r4, #40]	; 0x28
 80030ba:	6267      	str	r7, [r4, #36]	; 0x24
 80030bc:	f57f af22 	bpl.w	8002f04 <HAL_I2C_Master_Receive+0x1c0>
 80030c0:	690b      	ldr	r3, [r1, #16]
 80030c2:	7053      	strb	r3, [r2, #1]
 80030c4:	8d23      	ldrh	r3, [r4, #40]	; 0x28
 80030c6:	8d62      	ldrh	r2, [r4, #42]	; 0x2a
 80030c8:	6a61      	ldr	r1, [r4, #36]	; 0x24
 80030ca:	3b01      	subs	r3, #1
 80030cc:	3a01      	subs	r2, #1
 80030ce:	b29b      	uxth	r3, r3
 80030d0:	b292      	uxth	r2, r2
 80030d2:	3101      	adds	r1, #1
 80030d4:	8523      	strh	r3, [r4, #40]	; 0x28
 80030d6:	8562      	strh	r2, [r4, #42]	; 0x2a
 80030d8:	6261      	str	r1, [r4, #36]	; 0x24
 80030da:	e713      	b.n	8002f04 <HAL_I2C_Master_Receive+0x1c0>
 80030dc:	6953      	ldr	r3, [r2, #20]
 80030de:	0758      	lsls	r0, r3, #29
 80030e0:	f53f af22 	bmi.w	8002f28 <HAL_I2C_Master_Receive+0x1e4>
 80030e4:	f7ff fa3a 	bl	800255c <HAL_GetTick>
 80030e8:	1b80      	subs	r0, r0, r6
 80030ea:	4285      	cmp	r5, r0
 80030ec:	f4ff aec4 	bcc.w	8002e78 <HAL_I2C_Master_Receive+0x134>
 80030f0:	2d00      	cmp	r5, #0
 80030f2:	f47f af12 	bne.w	8002f1a <HAL_I2C_Master_Receive+0x1d6>
 80030f6:	e6bf      	b.n	8002e78 <HAL_I2C_Master_Receive+0x134>
 80030f8:	6953      	ldr	r3, [r2, #20]
 80030fa:	075f      	lsls	r7, r3, #29
 80030fc:	f53f af2e 	bmi.w	8002f5c <HAL_I2C_Master_Receive+0x218>
 8003100:	f7ff fa2c 	bl	800255c <HAL_GetTick>
 8003104:	1b80      	subs	r0, r0, r6
 8003106:	4285      	cmp	r5, r0
 8003108:	f4ff aeb6 	bcc.w	8002e78 <HAL_I2C_Master_Receive+0x134>
 800310c:	2d00      	cmp	r5, #0
 800310e:	f47f af1e 	bne.w	8002f4e <HAL_I2C_Master_Receive+0x20a>
 8003112:	e6b1      	b.n	8002e78 <HAL_I2C_Master_Receive+0x134>
 8003114:	b94d      	cbnz	r5, 800312a <HAL_I2C_Master_Receive+0x3e6>
 8003116:	e022      	b.n	800315e <HAL_I2C_Master_Receive+0x41a>
 8003118:	695a      	ldr	r2, [r3, #20]
 800311a:	06d2      	lsls	r2, r2, #27
 800311c:	d40d      	bmi.n	800313a <HAL_I2C_Master_Receive+0x3f6>
 800311e:	f7ff fa1d 	bl	800255c <HAL_GetTick>
 8003122:	1b80      	subs	r0, r0, r6
 8003124:	4285      	cmp	r5, r0
 8003126:	f4ff aea7 	bcc.w	8002e78 <HAL_I2C_Master_Receive+0x134>
 800312a:	6823      	ldr	r3, [r4, #0]
 800312c:	695a      	ldr	r2, [r3, #20]
 800312e:	0651      	lsls	r1, r2, #25
 8003130:	d5f2      	bpl.n	8003118 <HAL_I2C_Master_Receive+0x3d4>
 8003132:	691a      	ldr	r2, [r3, #16]
 8003134:	6a63      	ldr	r3, [r4, #36]	; 0x24
 8003136:	701a      	strb	r2, [r3, #0]
 8003138:	e7c4      	b.n	80030c4 <HAL_I2C_Master_Receive+0x380>
 800313a:	f06f 0010 	mvn.w	r0, #16
 800313e:	2200      	movs	r2, #0
 8003140:	2120      	movs	r1, #32
 8003142:	6158      	str	r0, [r3, #20]
 8003144:	2001      	movs	r0, #1
 8003146:	6322      	str	r2, [r4, #48]	; 0x30
 8003148:	f884 103d 	strb.w	r1, [r4, #61]	; 0x3d
 800314c:	f884 203e 	strb.w	r2, [r4, #62]	; 0x3e
 8003150:	6c23      	ldr	r3, [r4, #64]	; 0x40
 8003152:	f884 203c 	strb.w	r2, [r4, #60]	; 0x3c
 8003156:	6423      	str	r3, [r4, #64]	; 0x40
 8003158:	b006      	add	sp, #24
 800315a:	e8bd 87f0 	ldmia.w	sp!, {r4, r5, r6, r7, r8, r9, sl, pc}
 800315e:	6823      	ldr	r3, [r4, #0]
 8003160:	695a      	ldr	r2, [r3, #20]
 8003162:	0657      	lsls	r7, r2, #25
 8003164:	f57f ae82 	bpl.w	8002e6c <HAL_I2C_Master_Receive+0x128>
 8003168:	e7e3      	b.n	8003132 <HAL_I2C_Master_Receive+0x3ee>
 800316a:	6953      	ldr	r3, [r2, #20]
 800316c:	0798      	lsls	r0, r3, #30
 800316e:	f53f ae51 	bmi.w	8002e14 <HAL_I2C_Master_Receive+0xd0>
 8003172:	6953      	ldr	r3, [r2, #20]
 8003174:	0558      	lsls	r0, r3, #21
 8003176:	f53f ae9e 	bmi.w	8002eb6 <HAL_I2C_Master_Receive+0x172>
 800317a:	f7ff f9ef 	bl	800255c <HAL_GetTick>
 800317e:	1b80      	subs	r0, r0, r6
 8003180:	4285      	cmp	r5, r0
 8003182:	f4ff ae79 	bcc.w	8002e78 <HAL_I2C_Master_Receive+0x134>
 8003186:	2d00      	cmp	r5, #0
 8003188:	f43f ae76 	beq.w	8002e78 <HAL_I2C_Master_Receive+0x134>
 800318c:	6822      	ldr	r2, [r4, #0]
 800318e:	e638      	b.n	8002e02 <HAL_I2C_Master_Receive+0xbe>
 8003190:	6953      	ldr	r3, [r2, #20]
 8003192:	071b      	lsls	r3, r3, #28
 8003194:	f53f af15 	bmi.w	8002fc2 <HAL_I2C_Master_Receive+0x27e>
 8003198:	6953      	ldr	r3, [r2, #20]
 800319a:	0559      	lsls	r1, r3, #21
 800319c:	f53f ae8b 	bmi.w	8002eb6 <HAL_I2C_Master_Receive+0x172>
 80031a0:	f7ff f9dc 	bl	800255c <HAL_GetTick>
 80031a4:	1b80      	subs	r0, r0, r6
 80031a6:	4285      	cmp	r5, r0
 80031a8:	f4ff ae66 	bcc.w	8002e78 <HAL_I2C_Master_Receive+0x134>
 80031ac:	2d00      	cmp	r5, #0
 80031ae:	f43f ae63 	beq.w	8002e78 <HAL_I2C_Master_Receive+0x134>
 80031b2:	6822      	ldr	r2, [r4, #0]
 80031b4:	e6fb      	b.n	8002fae <HAL_I2C_Master_Receive+0x26a>
 80031b6:	6813      	ldr	r3, [r2, #0]
 80031b8:	f443 6300 	orr.w	r3, r3, #2048	; 0x800
 80031bc:	6013      	str	r3, [r2, #0]
 80031be:	b672      	cpsid	i
 80031c0:	2200      	movs	r2, #0
 80031c2:	6823      	ldr	r3, [r4, #0]
 80031c4:	9203      	str	r2, [sp, #12]
 80031c6:	695a      	ldr	r2, [r3, #20]
 80031c8:	9203      	str	r2, [sp, #12]
 80031ca:	699a      	ldr	r2, [r3, #24]
 80031cc:	9203      	str	r2, [sp, #12]
 80031ce:	9a03      	ldr	r2, [sp, #12]
 80031d0:	681a      	ldr	r2, [r3, #0]
 80031d2:	f422 6280 	bic.w	r2, r2, #1024	; 0x400
 80031d6:	601a      	str	r2, [r3, #0]
 80031d8:	b662      	cpsie	i
 80031da:	8d23      	ldrh	r3, [r4, #40]	; 0x28
 80031dc:	e692      	b.n	8002f04 <HAL_I2C_Master_Receive+0x1c0>
 80031de:	6953      	ldr	r3, [r2, #20]
 80031e0:	0798      	lsls	r0, r3, #30
 80031e2:	f53f aefa 	bmi.w	8002fda <HAL_I2C_Master_Receive+0x296>
 80031e6:	6953      	ldr	r3, [r2, #20]
 80031e8:	0558      	lsls	r0, r3, #21
 80031ea:	f53f ae64 	bmi.w	8002eb6 <HAL_I2C_Master_Receive+0x172>
 80031ee:	f7ff f9b5 	bl	800255c <HAL_GetTick>
 80031f2:	1b80      	subs	r0, r0, r6
 80031f4:	4285      	cmp	r5, r0
 80031f6:	f4ff ae3f 	bcc.w	8002e78 <HAL_I2C_Master_Receive+0x134>
 80031fa:	2d00      	cmp	r5, #0
 80031fc:	f43f ae3c 	beq.w	8002e78 <HAL_I2C_Master_Receive+0x134>
 8003200:	6822      	ldr	r2, [r4, #0]
 8003202:	e6e0      	b.n	8002fc6 <HAL_I2C_Master_Receive+0x282>
 8003204:	6953      	ldr	r3, [r2, #20]
 8003206:	07df      	lsls	r7, r3, #31
 8003208:	f53f aef8 	bmi.w	8002ffc <HAL_I2C_Master_Receive+0x2b8>
 800320c:	f7ff f9a6 	bl	800255c <HAL_GetTick>
 8003210:	1b80      	subs	r0, r0, r6
 8003212:	4285      	cmp	r5, r0
 8003214:	f4ff ae30 	bcc.w	8002e78 <HAL_I2C_Master_Receive+0x134>
 8003218:	2d00      	cmp	r5, #0
 800321a:	f43f ae2d 	beq.w	8002e78 <HAL_I2C_Master_Receive+0x134>
 800321e:	6822      	ldr	r2, [r4, #0]
 8003220:	e6e6      	b.n	8002ff0 <HAL_I2C_Master_Receive+0x2ac>
 8003222:	bf00      	nop

08003224 <HAL_I2C_MasterTxCpltCallback>:
 8003224:	4770      	bx	lr
 8003226:	bf00      	nop

08003228 <HAL_I2C_MasterRxCpltCallback>:
 8003228:	4770      	bx	lr
 800322a:	bf00      	nop

0800322c <HAL_I2C_SlaveTxCpltCallback>:
 800322c:	4770      	bx	lr
 800322e:	bf00      	nop

08003230 <HAL_I2C_SlaveRxCpltCallback>:
 8003230:	4770      	bx	lr
 8003232:	bf00      	nop

08003234 <HAL_I2C_AddrCallback>:
 8003234:	4770      	bx	lr
 8003236:	bf00      	nop

08003238 <HAL_I2C_ListenCpltCallback>:
 8003238:	4770      	bx	lr
 800323a:	bf00      	nop

0800323c <HAL_I2C_MemTxCpltCallback>:
 800323c:	4770      	bx	lr
 800323e:	bf00      	nop

08003240 <HAL_I2C_MemRxCpltCallback>:
 8003240:	4770      	bx	lr
 8003242:	bf00      	nop

08003244 <HAL_I2C_ErrorCallback>:
 8003244:	4770      	bx	lr
 8003246:	bf00      	nop

08003248 <HAL_I2C_AbortCpltCallback>:
 8003248:	4770      	bx	lr
 800324a:	bf00      	nop

0800324c <I2C_DMAAbort>:
 800324c:	2200      	movs	r2, #0
 800324e:	6a43      	ldr	r3, [r0, #36]	; 0x24
 8003250:	b570      	push	{r4, r5, r6, lr}
 8003252:	e9d3 650d 	ldrd	r6, r5, [r3, #52]	; 0x34
 8003256:	6819      	ldr	r1, [r3, #0]
 8003258:	f893 003d 	ldrb.w	r0, [r3, #61]	; 0x3d
 800325c:	680c      	ldr	r4, [r1, #0]
 800325e:	62b2      	str	r2, [r6, #40]	; 0x28
 8003260:	f424 6480 	bic.w	r4, r4, #1024	; 0x400
 8003264:	62aa      	str	r2, [r5, #40]	; 0x28
 8003266:	600c      	str	r4, [r1, #0]
 8003268:	855a      	strh	r2, [r3, #42]	; 0x2a
 800326a:	680c      	ldr	r4, [r1, #0]
 800326c:	6372      	str	r2, [r6, #52]	; 0x34
 800326e:	f024 0401 	bic.w	r4, r4, #1
 8003272:	636a      	str	r2, [r5, #52]	; 0x34
 8003274:	600c      	str	r4, [r1, #0]
 8003276:	f893 403d 	ldrb.w	r4, [r3, #61]	; 0x3d
 800327a:	2c60      	cmp	r4, #96	; 0x60
 800327c:	d019      	beq.n	80032b2 <I2C_DMAAbort+0x66>
 800327e:	b2c0      	uxtb	r0, r0
 8003280:	f000 0028 	and.w	r0, r0, #40	; 0x28
 8003284:	2828      	cmp	r0, #40	; 0x28
 8003286:	d008      	beq.n	800329a <I2C_DMAAbort+0x4e>
 8003288:	2120      	movs	r1, #32
 800328a:	f883 103d 	strb.w	r1, [r3, #61]	; 0x3d
 800328e:	f883 203e 	strb.w	r2, [r3, #62]	; 0x3e
 8003292:	4618      	mov	r0, r3
 8003294:	f7ff ffd6 	bl	8003244 <HAL_I2C_ErrorCallback>
 8003298:	bd70      	pop	{r4, r5, r6, pc}
 800329a:	680c      	ldr	r4, [r1, #0]
 800329c:	f044 0401 	orr.w	r4, r4, #1
 80032a0:	600c      	str	r4, [r1, #0]
 80032a2:	680c      	ldr	r4, [r1, #0]
 80032a4:	f444 6480 	orr.w	r4, r4, #1024	; 0x400
 80032a8:	600c      	str	r4, [r1, #0]
 80032aa:	631a      	str	r2, [r3, #48]	; 0x30
 80032ac:	f883 003d 	strb.w	r0, [r3, #61]	; 0x3d
 80032b0:	e7ef      	b.n	8003292 <I2C_DMAAbort+0x46>
 80032b2:	2120      	movs	r1, #32
 80032b4:	4618      	mov	r0, r3
 80032b6:	f883 103d 	strb.w	r1, [r3, #61]	; 0x3d
 80032ba:	f883 203e 	strb.w	r2, [r3, #62]	; 0x3e
 80032be:	641a      	str	r2, [r3, #64]	; 0x40
 80032c0:	f7ff ffc2 	bl	8003248 <HAL_I2C_AbortCpltCallback>
 80032c4:	bd70      	pop	{r4, r5, r6, pc}
 80032c6:	bf00      	nop

080032c8 <HAL_I2C_EV_IRQHandler>:
 80032c8:	b570      	push	{r4, r5, r6, lr}
 80032ca:	4604      	mov	r4, r0
 80032cc:	6803      	ldr	r3, [r0, #0]
 80032ce:	b08c      	sub	sp, #48	; 0x30
 80032d0:	6858      	ldr	r0, [r3, #4]
 80032d2:	6ae5      	ldr	r5, [r4, #44]	; 0x2c
 80032d4:	f894 203e 	ldrb.w	r2, [r4, #62]	; 0x3e
 80032d8:	f894 103d 	ldrb.w	r1, [r4, #61]	; 0x3d
 80032dc:	b2d2      	uxtb	r2, r2
 80032de:	2a10      	cmp	r2, #16
 80032e0:	d022      	beq.n	8003328 <HAL_I2C_EV_IRQHandler+0x60>
 80032e2:	2a40      	cmp	r2, #64	; 0x40
 80032e4:	d020      	beq.n	8003328 <HAL_I2C_EV_IRQHandler+0x60>
 80032e6:	6c22      	ldr	r2, [r4, #64]	; 0x40
 80032e8:	b2c9      	uxtb	r1, r1
 80032ea:	2a00      	cmp	r2, #0
 80032ec:	f000 80cc 	beq.w	8003488 <HAL_I2C_EV_IRQHandler+0x1c0>
 80032f0:	2600      	movs	r6, #0
 80032f2:	695a      	ldr	r2, [r3, #20]
 80032f4:	f3c2 0540 	ubfx	r5, r2, #1, #1
 80032f8:	2d00      	cmp	r5, #0
 80032fa:	f000 8089 	beq.w	8003410 <HAL_I2C_EV_IRQHandler+0x148>
 80032fe:	0585      	lsls	r5, r0, #22
 8003300:	f140 808b 	bpl.w	800341a <HAL_I2C_EV_IRQHandler+0x152>
 8003304:	6c22      	ldr	r2, [r4, #64]	; 0x40
 8003306:	b102      	cbz	r2, 800330a <HAL_I2C_EV_IRQHandler+0x42>
 8003308:	699e      	ldr	r6, [r3, #24]
 800330a:	f894 203d 	ldrb.w	r2, [r4, #61]	; 0x3d
 800330e:	f002 0228 	and.w	r2, r2, #40	; 0x28
 8003312:	2a28      	cmp	r2, #40	; 0x28
 8003314:	f000 8244 	beq.w	80037a0 <HAL_I2C_EV_IRQHandler+0x4d8>
 8003318:	f06f 0102 	mvn.w	r1, #2
 800331c:	2200      	movs	r2, #0
 800331e:	6159      	str	r1, [r3, #20]
 8003320:	f884 203c 	strb.w	r2, [r4, #60]	; 0x3c
 8003324:	b00c      	add	sp, #48	; 0x30
 8003326:	bd70      	pop	{r4, r5, r6, pc}
 8003328:	6999      	ldr	r1, [r3, #24]
 800332a:	695a      	ldr	r2, [r3, #20]
 800332c:	07d6      	lsls	r6, r2, #31
 800332e:	d449      	bmi.n	80033c4 <HAL_I2C_EV_IRQHandler+0xfc>
 8003330:	f5b5 0f2a 	cmp.w	r5, #11141120	; 0xaa0000
 8003334:	d0f6      	beq.n	8003324 <HAL_I2C_EV_IRQHandler+0x5c>
 8003336:	f1b5 4f2a 	cmp.w	r5, #2852126720	; 0xaa000000
 800333a:	d0f3      	beq.n	8003324 <HAL_I2C_EV_IRQHandler+0x5c>
 800333c:	0716      	lsls	r6, r2, #28
 800333e:	f140 80a9 	bpl.w	8003494 <HAL_I2C_EV_IRQHandler+0x1cc>
 8003342:	0585      	lsls	r5, r0, #22
 8003344:	f100 821d 	bmi.w	8003782 <HAL_I2C_EV_IRQHandler+0x4ba>
 8003348:	f011 0f04 	tst.w	r1, #4
 800334c:	6859      	ldr	r1, [r3, #4]
 800334e:	f000 810e 	beq.w	800356e <HAL_I2C_EV_IRQHandler+0x2a6>
 8003352:	0509      	lsls	r1, r1, #20
 8003354:	d4e6      	bmi.n	8003324 <HAL_I2C_EV_IRQHandler+0x5c>
 8003356:	0616      	lsls	r6, r2, #24
 8003358:	f3c2 0180 	ubfx	r1, r2, #2, #1
 800335c:	f140 81b0 	bpl.w	80036c0 <HAL_I2C_EV_IRQHandler+0x3f8>
 8003360:	0545      	lsls	r5, r0, #21
 8003362:	f140 81ad 	bpl.w	80036c0 <HAL_I2C_EV_IRQHandler+0x3f8>
 8003366:	2900      	cmp	r1, #0
 8003368:	f040 81ad 	bne.w	80036c6 <HAL_I2C_EV_IRQHandler+0x3fe>
 800336c:	f894 203d 	ldrb.w	r2, [r4, #61]	; 0x3d
 8003370:	8d20      	ldrh	r0, [r4, #40]	; 0x28
 8003372:	f894 103e 	ldrb.w	r1, [r4, #62]	; 0x3e
 8003376:	b2d2      	uxtb	r2, r2
 8003378:	b2c9      	uxtb	r1, r1
 800337a:	6ae5      	ldr	r5, [r4, #44]	; 0x2c
 800337c:	2800      	cmp	r0, #0
 800337e:	f040 8387 	bne.w	8003a90 <HAL_I2C_EV_IRQHandler+0x7c8>
 8003382:	2a21      	cmp	r2, #33	; 0x21
 8003384:	f000 842b 	beq.w	8003bde <HAL_I2C_EV_IRQHandler+0x916>
 8003388:	2940      	cmp	r1, #64	; 0x40
 800338a:	d1cb      	bne.n	8003324 <HAL_I2C_EV_IRQHandler+0x5c>
 800338c:	2a22      	cmp	r2, #34	; 0x22
 800338e:	d1c9      	bne.n	8003324 <HAL_I2C_EV_IRQHandler+0x5c>
 8003390:	8d62      	ldrh	r2, [r4, #42]	; 0x2a
 8003392:	b292      	uxth	r2, r2
 8003394:	2a00      	cmp	r2, #0
 8003396:	f000 843d 	beq.w	8003c14 <HAL_I2C_EV_IRQHandler+0x94c>
 800339a:	f894 203e 	ldrb.w	r2, [r4, #62]	; 0x3e
 800339e:	2a40      	cmp	r2, #64	; 0x40
 80033a0:	f040 80c5 	bne.w	800352e <HAL_I2C_EV_IRQHandler+0x266>
 80033a4:	6d22      	ldr	r2, [r4, #80]	; 0x50
 80033a6:	2a00      	cmp	r2, #0
 80033a8:	f040 84bd 	bne.w	8003d26 <HAL_I2C_EV_IRQHandler+0xa5e>
 80033ac:	6ce2      	ldr	r2, [r4, #76]	; 0x4c
 80033ae:	2a01      	cmp	r2, #1
 80033b0:	6ca2      	ldr	r2, [r4, #72]	; 0x48
 80033b2:	f000 84ca 	beq.w	8003d4a <HAL_I2C_EV_IRQHandler+0xa82>
 80033b6:	f3c2 2207 	ubfx	r2, r2, #8, #8
 80033ba:	611a      	str	r2, [r3, #16]
 80033bc:	6d23      	ldr	r3, [r4, #80]	; 0x50
 80033be:	3301      	adds	r3, #1
 80033c0:	6523      	str	r3, [r4, #80]	; 0x50
 80033c2:	e7af      	b.n	8003324 <HAL_I2C_EV_IRQHandler+0x5c>
 80033c4:	0585      	lsls	r5, r0, #22
 80033c6:	d562      	bpl.n	800348e <HAL_I2C_EV_IRQHandler+0x1c6>
 80033c8:	6ae2      	ldr	r2, [r4, #44]	; 0x2c
 80033ca:	f5b2 0f2a 	cmp.w	r2, #11141120	; 0xaa0000
 80033ce:	f000 81fb 	beq.w	80037c8 <HAL_I2C_EV_IRQHandler+0x500>
 80033d2:	6ae2      	ldr	r2, [r4, #44]	; 0x2c
 80033d4:	f1b2 4f2a 	cmp.w	r2, #2852126720	; 0xaa000000
 80033d8:	bf04      	itt	eq
 80033da:	2208      	moveq	r2, #8
 80033dc:	62e2      	streq	r2, [r4, #44]	; 0x2c
 80033de:	f894 203e 	ldrb.w	r2, [r4, #62]	; 0x3e
 80033e2:	2a40      	cmp	r2, #64	; 0x40
 80033e4:	f000 81f3 	beq.w	80037ce <HAL_I2C_EV_IRQHandler+0x506>
 80033e8:	6922      	ldr	r2, [r4, #16]
 80033ea:	f5b2 4f80 	cmp.w	r2, #16384	; 0x4000
 80033ee:	f000 81b2 	beq.w	8003756 <HAL_I2C_EV_IRQHandler+0x48e>
 80033f2:	6d22      	ldr	r2, [r4, #80]	; 0x50
 80033f4:	2a00      	cmp	r2, #0
 80033f6:	f000 81f1 	beq.w	80037dc <HAL_I2C_EV_IRQHandler+0x514>
 80033fa:	6d22      	ldr	r2, [r4, #80]	; 0x50
 80033fc:	2a01      	cmp	r2, #1
 80033fe:	d191      	bne.n	8003324 <HAL_I2C_EV_IRQHandler+0x5c>
 8003400:	6c62      	ldr	r2, [r4, #68]	; 0x44
 8003402:	11d2      	asrs	r2, r2, #7
 8003404:	f002 0206 	and.w	r2, r2, #6
 8003408:	f042 02f1 	orr.w	r2, r2, #241	; 0xf1
 800340c:	611a      	str	r2, [r3, #16]
 800340e:	e789      	b.n	8003324 <HAL_I2C_EV_IRQHandler+0x5c>
 8003410:	06d6      	lsls	r6, r2, #27
 8003412:	d502      	bpl.n	800341a <HAL_I2C_EV_IRQHandler+0x152>
 8003414:	0586      	lsls	r6, r0, #22
 8003416:	f100 80d7 	bmi.w	80035c8 <HAL_I2C_EV_IRQHandler+0x300>
 800341a:	f001 01f7 	and.w	r1, r1, #247	; 0xf7
 800341e:	2921      	cmp	r1, #33	; 0x21
 8003420:	f3c2 0580 	ubfx	r5, r2, #2, #1
 8003424:	d04e      	beq.n	80034c4 <HAL_I2C_EV_IRQHandler+0x1fc>
 8003426:	0651      	lsls	r1, r2, #25
 8003428:	f140 808b 	bpl.w	8003542 <HAL_I2C_EV_IRQHandler+0x27a>
 800342c:	0542      	lsls	r2, r0, #21
 800342e:	f140 8088 	bpl.w	8003542 <HAL_I2C_EV_IRQHandler+0x27a>
 8003432:	2d00      	cmp	r5, #0
 8003434:	f040 8088 	bne.w	8003548 <HAL_I2C_EV_IRQHandler+0x280>
 8003438:	f894 103d 	ldrb.w	r1, [r4, #61]	; 0x3d
 800343c:	8d62      	ldrh	r2, [r4, #42]	; 0x2a
 800343e:	b2c9      	uxtb	r1, r1
 8003440:	b292      	uxth	r2, r2
 8003442:	2a00      	cmp	r2, #0
 8003444:	f43f af6e 	beq.w	8003324 <HAL_I2C_EV_IRQHandler+0x5c>
 8003448:	691a      	ldr	r2, [r3, #16]
 800344a:	6a63      	ldr	r3, [r4, #36]	; 0x24
 800344c:	701a      	strb	r2, [r3, #0]
 800344e:	8d63      	ldrh	r3, [r4, #42]	; 0x2a
 8003450:	6a62      	ldr	r2, [r4, #36]	; 0x24
 8003452:	3b01      	subs	r3, #1
 8003454:	b29b      	uxth	r3, r3
 8003456:	8563      	strh	r3, [r4, #42]	; 0x2a
 8003458:	8d63      	ldrh	r3, [r4, #42]	; 0x2a
 800345a:	3201      	adds	r2, #1
 800345c:	b29b      	uxth	r3, r3
 800345e:	6262      	str	r2, [r4, #36]	; 0x24
 8003460:	2b00      	cmp	r3, #0
 8003462:	f47f af5f 	bne.w	8003324 <HAL_I2C_EV_IRQHandler+0x5c>
 8003466:	292a      	cmp	r1, #42	; 0x2a
 8003468:	f47f af5c 	bne.w	8003324 <HAL_I2C_EV_IRQHandler+0x5c>
 800346c:	2522      	movs	r5, #34	; 0x22
 800346e:	2128      	movs	r1, #40	; 0x28
 8003470:	6822      	ldr	r2, [r4, #0]
 8003472:	4620      	mov	r0, r4
 8003474:	6853      	ldr	r3, [r2, #4]
 8003476:	f423 6380 	bic.w	r3, r3, #1024	; 0x400
 800347a:	6053      	str	r3, [r2, #4]
 800347c:	6325      	str	r5, [r4, #48]	; 0x30
 800347e:	f884 103d 	strb.w	r1, [r4, #61]	; 0x3d
 8003482:	f7ff fed5 	bl	8003230 <HAL_I2C_SlaveRxCpltCallback>
 8003486:	e74d      	b.n	8003324 <HAL_I2C_EV_IRQHandler+0x5c>
 8003488:	699e      	ldr	r6, [r3, #24]
 800348a:	695a      	ldr	r2, [r3, #20]
 800348c:	e732      	b.n	80032f4 <HAL_I2C_EV_IRQHandler+0x2c>
 800348e:	0715      	lsls	r5, r2, #28
 8003490:	f53f af5a 	bmi.w	8003348 <HAL_I2C_EV_IRQHandler+0x80>
 8003494:	0796      	lsls	r6, r2, #30
 8003496:	f57f af57 	bpl.w	8003348 <HAL_I2C_EV_IRQHandler+0x80>
 800349a:	0585      	lsls	r5, r0, #22
 800349c:	f57f af54 	bpl.w	8003348 <HAL_I2C_EV_IRQHandler+0x80>
 80034a0:	f894 203e 	ldrb.w	r2, [r4, #62]	; 0x3e
 80034a4:	6ae0      	ldr	r0, [r4, #44]	; 0x2c
 80034a6:	6b25      	ldr	r5, [r4, #48]	; 0x30
 80034a8:	f894 103d 	ldrb.w	r1, [r4, #61]	; 0x3d
 80034ac:	b2d2      	uxtb	r2, r2
 80034ae:	2922      	cmp	r1, #34	; 0x22
 80034b0:	f000 8222 	beq.w	80038f8 <HAL_I2C_EV_IRQHandler+0x630>
 80034b4:	2200      	movs	r2, #0
 80034b6:	920a      	str	r2, [sp, #40]	; 0x28
 80034b8:	695a      	ldr	r2, [r3, #20]
 80034ba:	920a      	str	r2, [sp, #40]	; 0x28
 80034bc:	699b      	ldr	r3, [r3, #24]
 80034be:	930a      	str	r3, [sp, #40]	; 0x28
 80034c0:	9b0a      	ldr	r3, [sp, #40]	; 0x28
 80034c2:	e72f      	b.n	8003324 <HAL_I2C_EV_IRQHandler+0x5c>
 80034c4:	0612      	lsls	r2, r2, #24
 80034c6:	d527      	bpl.n	8003518 <HAL_I2C_EV_IRQHandler+0x250>
 80034c8:	0546      	lsls	r6, r0, #21
 80034ca:	d525      	bpl.n	8003518 <HAL_I2C_EV_IRQHandler+0x250>
 80034cc:	bb3d      	cbnz	r5, 800351e <HAL_I2C_EV_IRQHandler+0x256>
 80034ce:	f894 003d 	ldrb.w	r0, [r4, #61]	; 0x3d
 80034d2:	8d62      	ldrh	r2, [r4, #42]	; 0x2a
 80034d4:	b2c0      	uxtb	r0, r0
 80034d6:	b292      	uxth	r2, r2
 80034d8:	2a00      	cmp	r2, #0
 80034da:	f43f af23 	beq.w	8003324 <HAL_I2C_EV_IRQHandler+0x5c>
 80034de:	6a65      	ldr	r5, [r4, #36]	; 0x24
 80034e0:	f815 2b01 	ldrb.w	r2, [r5], #1
 80034e4:	611a      	str	r2, [r3, #16]
 80034e6:	8d62      	ldrh	r2, [r4, #42]	; 0x2a
 80034e8:	6265      	str	r5, [r4, #36]	; 0x24
 80034ea:	3a01      	subs	r2, #1
 80034ec:	b292      	uxth	r2, r2
 80034ee:	8562      	strh	r2, [r4, #42]	; 0x2a
 80034f0:	8d62      	ldrh	r2, [r4, #42]	; 0x2a
 80034f2:	b292      	uxth	r2, r2
 80034f4:	2a00      	cmp	r2, #0
 80034f6:	f47f af15 	bne.w	8003324 <HAL_I2C_EV_IRQHandler+0x5c>
 80034fa:	2829      	cmp	r0, #41	; 0x29
 80034fc:	f47f af12 	bne.w	8003324 <HAL_I2C_EV_IRQHandler+0x5c>
 8003500:	2528      	movs	r5, #40	; 0x28
 8003502:	685a      	ldr	r2, [r3, #4]
 8003504:	4620      	mov	r0, r4
 8003506:	f422 6280 	bic.w	r2, r2, #1024	; 0x400
 800350a:	605a      	str	r2, [r3, #4]
 800350c:	6321      	str	r1, [r4, #48]	; 0x30
 800350e:	f884 503d 	strb.w	r5, [r4, #61]	; 0x3d
 8003512:	f7ff fe8b 	bl	800322c <HAL_I2C_SlaveTxCpltCallback>
 8003516:	e705      	b.n	8003324 <HAL_I2C_EV_IRQHandler+0x5c>
 8003518:	2d00      	cmp	r5, #0
 800351a:	f43f af03 	beq.w	8003324 <HAL_I2C_EV_IRQHandler+0x5c>
 800351e:	0580      	lsls	r0, r0, #22
 8003520:	f57f af00 	bpl.w	8003324 <HAL_I2C_EV_IRQHandler+0x5c>
 8003524:	8d62      	ldrh	r2, [r4, #42]	; 0x2a
 8003526:	b292      	uxth	r2, r2
 8003528:	2a00      	cmp	r2, #0
 800352a:	f43f aefb 	beq.w	8003324 <HAL_I2C_EV_IRQHandler+0x5c>
 800352e:	6a62      	ldr	r2, [r4, #36]	; 0x24
 8003530:	f812 1b01 	ldrb.w	r1, [r2], #1
 8003534:	6119      	str	r1, [r3, #16]
 8003536:	8d63      	ldrh	r3, [r4, #42]	; 0x2a
 8003538:	6262      	str	r2, [r4, #36]	; 0x24
 800353a:	3b01      	subs	r3, #1
 800353c:	b29b      	uxth	r3, r3
 800353e:	8563      	strh	r3, [r4, #42]	; 0x2a
 8003540:	e6f0      	b.n	8003324 <HAL_I2C_EV_IRQHandler+0x5c>
 8003542:	2d00      	cmp	r5, #0
 8003544:	f43f aeee 	beq.w	8003324 <HAL_I2C_EV_IRQHandler+0x5c>
 8003548:	0586      	lsls	r6, r0, #22
 800354a:	f57f aeeb 	bpl.w	8003324 <HAL_I2C_EV_IRQHandler+0x5c>
 800354e:	8d62      	ldrh	r2, [r4, #42]	; 0x2a
 8003550:	b292      	uxth	r2, r2
 8003552:	2a00      	cmp	r2, #0
 8003554:	f43f aee6 	beq.w	8003324 <HAL_I2C_EV_IRQHandler+0x5c>
 8003558:	691a      	ldr	r2, [r3, #16]
 800355a:	6a63      	ldr	r3, [r4, #36]	; 0x24
 800355c:	701a      	strb	r2, [r3, #0]
 800355e:	8d63      	ldrh	r3, [r4, #42]	; 0x2a
 8003560:	6a62      	ldr	r2, [r4, #36]	; 0x24
 8003562:	3b01      	subs	r3, #1
 8003564:	b29b      	uxth	r3, r3
 8003566:	3201      	adds	r2, #1
 8003568:	8563      	strh	r3, [r4, #42]	; 0x2a
 800356a:	6262      	str	r2, [r4, #36]	; 0x24
 800356c:	e6da      	b.n	8003324 <HAL_I2C_EV_IRQHandler+0x5c>
 800356e:	050e      	lsls	r6, r1, #20
 8003570:	f53f aed8 	bmi.w	8003324 <HAL_I2C_EV_IRQHandler+0x5c>
 8003574:	0655      	lsls	r5, r2, #25
 8003576:	f3c2 0180 	ubfx	r1, r2, #2, #1
 800357a:	f140 80d2 	bpl.w	8003722 <HAL_I2C_EV_IRQHandler+0x45a>
 800357e:	0542      	lsls	r2, r0, #21
 8003580:	f140 80cf 	bpl.w	8003722 <HAL_I2C_EV_IRQHandler+0x45a>
 8003584:	2900      	cmp	r1, #0
 8003586:	f040 80cf 	bne.w	8003728 <HAL_I2C_EV_IRQHandler+0x460>
 800358a:	f894 203d 	ldrb.w	r2, [r4, #61]	; 0x3d
 800358e:	2a22      	cmp	r2, #34	; 0x22
 8003590:	f47f aec8 	bne.w	8003324 <HAL_I2C_EV_IRQHandler+0x5c>
 8003594:	8d62      	ldrh	r2, [r4, #42]	; 0x2a
 8003596:	b292      	uxth	r2, r2
 8003598:	2a03      	cmp	r2, #3
 800359a:	f240 82f3 	bls.w	8003b84 <HAL_I2C_EV_IRQHandler+0x8bc>
 800359e:	691a      	ldr	r2, [r3, #16]
 80035a0:	6a63      	ldr	r3, [r4, #36]	; 0x24
 80035a2:	701a      	strb	r2, [r3, #0]
 80035a4:	8d63      	ldrh	r3, [r4, #42]	; 0x2a
 80035a6:	6a62      	ldr	r2, [r4, #36]	; 0x24
 80035a8:	3b01      	subs	r3, #1
 80035aa:	b29b      	uxth	r3, r3
 80035ac:	8563      	strh	r3, [r4, #42]	; 0x2a
 80035ae:	8d63      	ldrh	r3, [r4, #42]	; 0x2a
 80035b0:	3201      	adds	r2, #1
 80035b2:	b29b      	uxth	r3, r3
 80035b4:	2b03      	cmp	r3, #3
 80035b6:	6262      	str	r2, [r4, #36]	; 0x24
 80035b8:	f47f aeb4 	bne.w	8003324 <HAL_I2C_EV_IRQHandler+0x5c>
 80035bc:	6822      	ldr	r2, [r4, #0]
 80035be:	6853      	ldr	r3, [r2, #4]
 80035c0:	f423 6380 	bic.w	r3, r3, #1024	; 0x400
 80035c4:	6053      	str	r3, [r2, #4]
 80035c6:	e6ad      	b.n	8003324 <HAL_I2C_EV_IRQHandler+0x5c>
 80035c8:	f894 603d 	ldrb.w	r6, [r4, #61]	; 0x3d
 80035cc:	685a      	ldr	r2, [r3, #4]
 80035ce:	b2f6      	uxtb	r6, r6
 80035d0:	f422 62e0 	bic.w	r2, r2, #1792	; 0x700
 80035d4:	605a      	str	r2, [r3, #4]
 80035d6:	950b      	str	r5, [sp, #44]	; 0x2c
 80035d8:	695a      	ldr	r2, [r3, #20]
 80035da:	920b      	str	r2, [sp, #44]	; 0x2c
 80035dc:	681a      	ldr	r2, [r3, #0]
 80035de:	f042 0201 	orr.w	r2, r2, #1
 80035e2:	601a      	str	r2, [r3, #0]
 80035e4:	9a0b      	ldr	r2, [sp, #44]	; 0x2c
 80035e6:	681a      	ldr	r2, [r3, #0]
 80035e8:	f422 6280 	bic.w	r2, r2, #1024	; 0x400
 80035ec:	601a      	str	r2, [r3, #0]
 80035ee:	685a      	ldr	r2, [r3, #4]
 80035f0:	0511      	lsls	r1, r2, #20
 80035f2:	d522      	bpl.n	800363a <HAL_I2C_EV_IRQHandler+0x372>
 80035f4:	f006 02f7 	and.w	r2, r6, #247	; 0xf7
 80035f8:	2a22      	cmp	r2, #34	; 0x22
 80035fa:	f000 815b 	beq.w	80038b4 <HAL_I2C_EV_IRQHandler+0x5ec>
 80035fe:	6b60      	ldr	r0, [r4, #52]	; 0x34
 8003600:	6802      	ldr	r2, [r0, #0]
 8003602:	6852      	ldr	r2, [r2, #4]
 8003604:	b292      	uxth	r2, r2
 8003606:	8562      	strh	r2, [r4, #42]	; 0x2a
 8003608:	8d62      	ldrh	r2, [r4, #42]	; 0x2a
 800360a:	b292      	uxth	r2, r2
 800360c:	b11a      	cbz	r2, 8003616 <HAL_I2C_EV_IRQHandler+0x34e>
 800360e:	6c22      	ldr	r2, [r4, #64]	; 0x40
 8003610:	f042 0204 	orr.w	r2, r2, #4
 8003614:	6422      	str	r2, [r4, #64]	; 0x40
 8003616:	685a      	ldr	r2, [r3, #4]
 8003618:	f422 6200 	bic.w	r2, r2, #2048	; 0x800
 800361c:	605a      	str	r2, [r3, #4]
 800361e:	f7ff f85d 	bl	80026dc <HAL_DMA_GetState>
 8003622:	2801      	cmp	r0, #1
 8003624:	d009      	beq.n	800363a <HAL_I2C_EV_IRQHandler+0x372>
 8003626:	6b63      	ldr	r3, [r4, #52]	; 0x34
 8003628:	4aa0      	ldr	r2, [pc, #640]	; (80038ac <HAL_I2C_EV_IRQHandler+0x5e4>)
 800362a:	4618      	mov	r0, r3
 800362c:	635a      	str	r2, [r3, #52]	; 0x34
 800362e:	f7ff f809 	bl	8002644 <HAL_DMA_Abort_IT>
 8003632:	b110      	cbz	r0, 800363a <HAL_I2C_EV_IRQHandler+0x372>
 8003634:	6b60      	ldr	r0, [r4, #52]	; 0x34
 8003636:	6b43      	ldr	r3, [r0, #52]	; 0x34
 8003638:	4798      	blx	r3
 800363a:	8d63      	ldrh	r3, [r4, #42]	; 0x2a
 800363c:	b29b      	uxth	r3, r3
 800363e:	b313      	cbz	r3, 8003686 <HAL_I2C_EV_IRQHandler+0x3be>
 8003640:	6823      	ldr	r3, [r4, #0]
 8003642:	695a      	ldr	r2, [r3, #20]
 8003644:	0752      	lsls	r2, r2, #29
 8003646:	d50a      	bpl.n	800365e <HAL_I2C_EV_IRQHandler+0x396>
 8003648:	691a      	ldr	r2, [r3, #16]
 800364a:	6a63      	ldr	r3, [r4, #36]	; 0x24
 800364c:	701a      	strb	r2, [r3, #0]
 800364e:	8d62      	ldrh	r2, [r4, #42]	; 0x2a
 8003650:	6a63      	ldr	r3, [r4, #36]	; 0x24
 8003652:	3a01      	subs	r2, #1
 8003654:	1c59      	adds	r1, r3, #1
 8003656:	b292      	uxth	r2, r2
 8003658:	6823      	ldr	r3, [r4, #0]
 800365a:	8562      	strh	r2, [r4, #42]	; 0x2a
 800365c:	6261      	str	r1, [r4, #36]	; 0x24
 800365e:	695a      	ldr	r2, [r3, #20]
 8003660:	0655      	lsls	r5, r2, #25
 8003662:	d509      	bpl.n	8003678 <HAL_I2C_EV_IRQHandler+0x3b0>
 8003664:	691a      	ldr	r2, [r3, #16]
 8003666:	6a63      	ldr	r3, [r4, #36]	; 0x24
 8003668:	701a      	strb	r2, [r3, #0]
 800366a:	8d63      	ldrh	r3, [r4, #42]	; 0x2a
 800366c:	6a62      	ldr	r2, [r4, #36]	; 0x24
 800366e:	3b01      	subs	r3, #1
 8003670:	b29b      	uxth	r3, r3
 8003672:	3201      	adds	r2, #1
 8003674:	8563      	strh	r3, [r4, #42]	; 0x2a
 8003676:	6262      	str	r2, [r4, #36]	; 0x24
 8003678:	8d63      	ldrh	r3, [r4, #42]	; 0x2a
 800367a:	b29b      	uxth	r3, r3
 800367c:	b11b      	cbz	r3, 8003686 <HAL_I2C_EV_IRQHandler+0x3be>
 800367e:	6c23      	ldr	r3, [r4, #64]	; 0x40
 8003680:	f043 0304 	orr.w	r3, r3, #4
 8003684:	6423      	str	r3, [r4, #64]	; 0x40
 8003686:	6c23      	ldr	r3, [r4, #64]	; 0x40
 8003688:	2b00      	cmp	r3, #0
 800368a:	f040 80b5 	bne.w	80037f8 <HAL_I2C_EV_IRQHandler+0x530>
 800368e:	2e2a      	cmp	r6, #42	; 0x2a
 8003690:	f000 8165 	beq.w	800395e <HAL_I2C_EV_IRQHandler+0x696>
 8003694:	f894 303d 	ldrb.w	r3, [r4, #61]	; 0x3d
 8003698:	2b28      	cmp	r3, #40	; 0x28
 800369a:	f000 8168 	beq.w	800396e <HAL_I2C_EV_IRQHandler+0x6a6>
 800369e:	6b23      	ldr	r3, [r4, #48]	; 0x30
 80036a0:	2b22      	cmp	r3, #34	; 0x22
 80036a2:	d002      	beq.n	80036aa <HAL_I2C_EV_IRQHandler+0x3e2>
 80036a4:	2e22      	cmp	r6, #34	; 0x22
 80036a6:	f47f ae3d 	bne.w	8003324 <HAL_I2C_EV_IRQHandler+0x5c>
 80036aa:	2300      	movs	r3, #0
 80036ac:	2220      	movs	r2, #32
 80036ae:	6323      	str	r3, [r4, #48]	; 0x30
 80036b0:	4620      	mov	r0, r4
 80036b2:	f884 203d 	strb.w	r2, [r4, #61]	; 0x3d
 80036b6:	f884 303e 	strb.w	r3, [r4, #62]	; 0x3e
 80036ba:	f7ff fdb9 	bl	8003230 <HAL_I2C_SlaveRxCpltCallback>
 80036be:	e631      	b.n	8003324 <HAL_I2C_EV_IRQHandler+0x5c>
 80036c0:	2900      	cmp	r1, #0
 80036c2:	f43f ae2f 	beq.w	8003324 <HAL_I2C_EV_IRQHandler+0x5c>
 80036c6:	0582      	lsls	r2, r0, #22
 80036c8:	f57f ae2c 	bpl.w	8003324 <HAL_I2C_EV_IRQHandler+0x5c>
 80036cc:	6ae1      	ldr	r1, [r4, #44]	; 0x2c
 80036ce:	f894 203d 	ldrb.w	r2, [r4, #61]	; 0x3d
 80036d2:	2a21      	cmp	r2, #33	; 0x21
 80036d4:	f47f ae26 	bne.w	8003324 <HAL_I2C_EV_IRQHandler+0x5c>
 80036d8:	8d62      	ldrh	r2, [r4, #42]	; 0x2a
 80036da:	b292      	uxth	r2, r2
 80036dc:	2a00      	cmp	r2, #0
 80036de:	f47f af26 	bne.w	800352e <HAL_I2C_EV_IRQHandler+0x266>
 80036e2:	2908      	cmp	r1, #8
 80036e4:	d005      	beq.n	80036f2 <HAL_I2C_EV_IRQHandler+0x42a>
 80036e6:	2920      	cmp	r1, #32
 80036e8:	d003      	beq.n	80036f2 <HAL_I2C_EV_IRQHandler+0x42a>
 80036ea:	f511 3f80 	cmn.w	r1, #65536	; 0x10000
 80036ee:	f040 82f9 	bne.w	8003ce4 <HAL_I2C_EV_IRQHandler+0xa1c>
 80036f2:	2200      	movs	r2, #0
 80036f4:	2020      	movs	r0, #32
 80036f6:	6859      	ldr	r1, [r3, #4]
 80036f8:	f421 61e0 	bic.w	r1, r1, #1792	; 0x700
 80036fc:	6059      	str	r1, [r3, #4]
 80036fe:	6819      	ldr	r1, [r3, #0]
 8003700:	f441 7100 	orr.w	r1, r1, #512	; 0x200
 8003704:	6019      	str	r1, [r3, #0]
 8003706:	6322      	str	r2, [r4, #48]	; 0x30
 8003708:	f884 003d 	strb.w	r0, [r4, #61]	; 0x3d
 800370c:	f894 303e 	ldrb.w	r3, [r4, #62]	; 0x3e
 8003710:	4620      	mov	r0, r4
 8003712:	2b40      	cmp	r3, #64	; 0x40
 8003714:	f884 203e 	strb.w	r2, [r4, #62]	; 0x3e
 8003718:	f000 82b9 	beq.w	8003c8e <HAL_I2C_EV_IRQHandler+0x9c6>
 800371c:	f7ff fd82 	bl	8003224 <HAL_I2C_MasterTxCpltCallback>
 8003720:	e600      	b.n	8003324 <HAL_I2C_EV_IRQHandler+0x5c>
 8003722:	2900      	cmp	r1, #0
 8003724:	f43f adfe 	beq.w	8003324 <HAL_I2C_EV_IRQHandler+0x5c>
 8003728:	0586      	lsls	r6, r0, #22
 800372a:	f57f adfb 	bpl.w	8003324 <HAL_I2C_EV_IRQHandler+0x5c>
 800372e:	6ae0      	ldr	r0, [r4, #44]	; 0x2c
 8003730:	8d62      	ldrh	r2, [r4, #42]	; 0x2a
 8003732:	6a61      	ldr	r1, [r4, #36]	; 0x24
 8003734:	b292      	uxth	r2, r2
 8003736:	2a04      	cmp	r2, #4
 8003738:	f000 815f 	beq.w	80039fa <HAL_I2C_EV_IRQHandler+0x732>
 800373c:	8d62      	ldrh	r2, [r4, #42]	; 0x2a
 800373e:	b292      	uxth	r2, r2
 8003740:	2a03      	cmp	r2, #3
 8003742:	f000 8161 	beq.w	8003a08 <HAL_I2C_EV_IRQHandler+0x740>
 8003746:	8d62      	ldrh	r2, [r4, #42]	; 0x2a
 8003748:	b292      	uxth	r2, r2
 800374a:	2a02      	cmp	r2, #2
 800374c:	f000 81da 	beq.w	8003b04 <HAL_I2C_EV_IRQHandler+0x83c>
 8003750:	691b      	ldr	r3, [r3, #16]
 8003752:	700b      	strb	r3, [r1, #0]
 8003754:	e703      	b.n	800355e <HAL_I2C_EV_IRQHandler+0x296>
 8003756:	f894 203d 	ldrb.w	r2, [r4, #61]	; 0x3d
 800375a:	2a21      	cmp	r2, #33	; 0x21
 800375c:	6c62      	ldr	r2, [r4, #68]	; 0x44
 800375e:	bf16      	itet	ne
 8003760:	f042 0201 	orrne.w	r2, r2, #1
 8003764:	f002 02fe 	andeq.w	r2, r2, #254	; 0xfe
 8003768:	b2d2      	uxtbne	r2, r2
 800376a:	611a      	str	r2, [r3, #16]
 800376c:	6b62      	ldr	r2, [r4, #52]	; 0x34
 800376e:	2a00      	cmp	r2, #0
 8003770:	f000 80f0 	beq.w	8003954 <HAL_I2C_EV_IRQHandler+0x68c>
 8003774:	6a92      	ldr	r2, [r2, #40]	; 0x28
 8003776:	b172      	cbz	r2, 8003796 <HAL_I2C_EV_IRQHandler+0x4ce>
 8003778:	685a      	ldr	r2, [r3, #4]
 800377a:	f442 6200 	orr.w	r2, r2, #2048	; 0x800
 800377e:	605a      	str	r2, [r3, #4]
 8003780:	e5d0      	b.n	8003324 <HAL_I2C_EV_IRQHandler+0x5c>
 8003782:	6c62      	ldr	r2, [r4, #68]	; 0x44
 8003784:	6b61      	ldr	r1, [r4, #52]	; 0x34
 8003786:	b2d2      	uxtb	r2, r2
 8003788:	611a      	str	r2, [r3, #16]
 800378a:	2900      	cmp	r1, #0
 800378c:	f000 8089 	beq.w	80038a2 <HAL_I2C_EV_IRQHandler+0x5da>
 8003790:	6a8a      	ldr	r2, [r1, #40]	; 0x28
 8003792:	2a00      	cmp	r2, #0
 8003794:	d1f0      	bne.n	8003778 <HAL_I2C_EV_IRQHandler+0x4b0>
 8003796:	6ba2      	ldr	r2, [r4, #56]	; 0x38
 8003798:	6a92      	ldr	r2, [r2, #40]	; 0x28
 800379a:	2a00      	cmp	r2, #0
 800379c:	d1ec      	bne.n	8003778 <HAL_I2C_EV_IRQHandler+0x4b0>
 800379e:	e5c1      	b.n	8003324 <HAL_I2C_EV_IRQHandler+0x5c>
 80037a0:	685a      	ldr	r2, [r3, #4]
 80037a2:	ea6f 0196 	mvn.w	r1, r6, lsr #2
 80037a6:	f422 6280 	bic.w	r2, r2, #1024	; 0x400
 80037aa:	605a      	str	r2, [r3, #4]
 80037ac:	0633      	lsls	r3, r6, #24
 80037ae:	f04f 0300 	mov.w	r3, #0
 80037b2:	f001 0101 	and.w	r1, r1, #1
 80037b6:	bf54      	ite	pl
 80037b8:	89a2      	ldrhpl	r2, [r4, #12]
 80037ba:	8b22      	ldrhmi	r2, [r4, #24]
 80037bc:	f884 303c 	strb.w	r3, [r4, #60]	; 0x3c
 80037c0:	4620      	mov	r0, r4
 80037c2:	f7ff fd37 	bl	8003234 <HAL_I2C_AddrCallback>
 80037c6:	e5ad      	b.n	8003324 <HAL_I2C_EV_IRQHandler+0x5c>
 80037c8:	2201      	movs	r2, #1
 80037ca:	62e2      	str	r2, [r4, #44]	; 0x2c
 80037cc:	e607      	b.n	80033de <HAL_I2C_EV_IRQHandler+0x116>
 80037ce:	6d22      	ldr	r2, [r4, #80]	; 0x50
 80037d0:	b962      	cbnz	r2, 80037ec <HAL_I2C_EV_IRQHandler+0x524>
 80037d2:	6c62      	ldr	r2, [r4, #68]	; 0x44
 80037d4:	f002 02fe 	and.w	r2, r2, #254	; 0xfe
 80037d8:	611a      	str	r2, [r3, #16]
 80037da:	e5a3      	b.n	8003324 <HAL_I2C_EV_IRQHandler+0x5c>
 80037dc:	6c62      	ldr	r2, [r4, #68]	; 0x44
 80037de:	11d2      	asrs	r2, r2, #7
 80037e0:	f002 0206 	and.w	r2, r2, #6
 80037e4:	f042 02f0 	orr.w	r2, r2, #240	; 0xf0
 80037e8:	611a      	str	r2, [r3, #16]
 80037ea:	e59b      	b.n	8003324 <HAL_I2C_EV_IRQHandler+0x5c>
 80037ec:	6c62      	ldr	r2, [r4, #68]	; 0x44
 80037ee:	f042 0201 	orr.w	r2, r2, #1
 80037f2:	b2d2      	uxtb	r2, r2
 80037f4:	611a      	str	r2, [r3, #16]
 80037f6:	e595      	b.n	8003324 <HAL_I2C_EV_IRQHandler+0x5c>
 80037f8:	f894 203d 	ldrb.w	r2, [r4, #61]	; 0x3d
 80037fc:	f894 103e 	ldrb.w	r1, [r4, #62]	; 0x3e
 8003800:	b2d2      	uxtb	r2, r2
 8003802:	2910      	cmp	r1, #16
 8003804:	6823      	ldr	r3, [r4, #0]
 8003806:	f000 80c4 	beq.w	8003992 <HAL_I2C_EV_IRQHandler+0x6ca>
 800380a:	f002 0128 	and.w	r1, r2, #40	; 0x28
 800380e:	2928      	cmp	r1, #40	; 0x28
 8003810:	f000 80ba 	beq.w	8003988 <HAL_I2C_EV_IRQHandler+0x6c0>
 8003814:	6859      	ldr	r1, [r3, #4]
 8003816:	0509      	lsls	r1, r1, #20
 8003818:	d404      	bmi.n	8003824 <HAL_I2C_EV_IRQHandler+0x55c>
 800381a:	2a60      	cmp	r2, #96	; 0x60
 800381c:	d002      	beq.n	8003824 <HAL_I2C_EV_IRQHandler+0x55c>
 800381e:	2220      	movs	r2, #32
 8003820:	f884 203d 	strb.w	r2, [r4, #61]	; 0x3d
 8003824:	2200      	movs	r2, #0
 8003826:	6322      	str	r2, [r4, #48]	; 0x30
 8003828:	f884 203e 	strb.w	r2, [r4, #62]	; 0x3e
 800382c:	685a      	ldr	r2, [r3, #4]
 800382e:	f412 6200 	ands.w	r2, r2, #2048	; 0x800
 8003832:	d07e      	beq.n	8003932 <HAL_I2C_EV_IRQHandler+0x66a>
 8003834:	6b61      	ldr	r1, [r4, #52]	; 0x34
 8003836:	685a      	ldr	r2, [r3, #4]
 8003838:	f891 0021 	ldrb.w	r0, [r1, #33]	; 0x21
 800383c:	f422 6200 	bic.w	r2, r2, #2048	; 0x800
 8003840:	2801      	cmp	r0, #1
 8003842:	605a      	str	r2, [r3, #4]
 8003844:	f000 8105 	beq.w	8003a52 <HAL_I2C_EV_IRQHandler+0x78a>
 8003848:	4b18      	ldr	r3, [pc, #96]	; (80038ac <HAL_I2C_EV_IRQHandler+0x5e4>)
 800384a:	4608      	mov	r0, r1
 800384c:	634b      	str	r3, [r1, #52]	; 0x34
 800384e:	f7fe fef9 	bl	8002644 <HAL_DMA_Abort_IT>
 8003852:	b150      	cbz	r0, 800386a <HAL_I2C_EV_IRQHandler+0x5a2>
 8003854:	2520      	movs	r5, #32
 8003856:	6822      	ldr	r2, [r4, #0]
 8003858:	6b60      	ldr	r0, [r4, #52]	; 0x34
 800385a:	6813      	ldr	r3, [r2, #0]
 800385c:	6b41      	ldr	r1, [r0, #52]	; 0x34
 800385e:	f023 0301 	bic.w	r3, r3, #1
 8003862:	6013      	str	r3, [r2, #0]
 8003864:	f884 503d 	strb.w	r5, [r4, #61]	; 0x3d
 8003868:	4788      	blx	r1
 800386a:	f894 303d 	ldrb.w	r3, [r4, #61]	; 0x3d
 800386e:	6c22      	ldr	r2, [r4, #64]	; 0x40
 8003870:	b2db      	uxtb	r3, r3
 8003872:	0751      	lsls	r1, r2, #29
 8003874:	f57f ad56 	bpl.w	8003324 <HAL_I2C_EV_IRQHandler+0x5c>
 8003878:	2b28      	cmp	r3, #40	; 0x28
 800387a:	f47f ad53 	bne.w	8003324 <HAL_I2C_EV_IRQHandler+0x5c>
 800387e:	2200      	movs	r2, #0
 8003880:	2520      	movs	r5, #32
 8003882:	6821      	ldr	r1, [r4, #0]
 8003884:	4e0a      	ldr	r6, [pc, #40]	; (80038b0 <HAL_I2C_EV_IRQHandler+0x5e8>)
 8003886:	684b      	ldr	r3, [r1, #4]
 8003888:	4620      	mov	r0, r4
 800388a:	f423 63e0 	bic.w	r3, r3, #1792	; 0x700
 800388e:	604b      	str	r3, [r1, #4]
 8003890:	62e6      	str	r6, [r4, #44]	; 0x2c
 8003892:	6322      	str	r2, [r4, #48]	; 0x30
 8003894:	f884 503d 	strb.w	r5, [r4, #61]	; 0x3d
 8003898:	f884 203e 	strb.w	r2, [r4, #62]	; 0x3e
 800389c:	f7ff fccc 	bl	8003238 <HAL_I2C_ListenCpltCallback>
 80038a0:	e540      	b.n	8003324 <HAL_I2C_EV_IRQHandler+0x5c>
 80038a2:	6ba2      	ldr	r2, [r4, #56]	; 0x38
 80038a4:	2a00      	cmp	r2, #0
 80038a6:	f47f af73 	bne.w	8003790 <HAL_I2C_EV_IRQHandler+0x4c8>
 80038aa:	e53b      	b.n	8003324 <HAL_I2C_EV_IRQHandler+0x5c>
 80038ac:	0800324d 	.word	0x0800324d
 80038b0:	ffff0000 	.word	0xffff0000
 80038b4:	6ba0      	ldr	r0, [r4, #56]	; 0x38
 80038b6:	6802      	ldr	r2, [r0, #0]
 80038b8:	6852      	ldr	r2, [r2, #4]
 80038ba:	b292      	uxth	r2, r2
 80038bc:	8562      	strh	r2, [r4, #42]	; 0x2a
 80038be:	8d62      	ldrh	r2, [r4, #42]	; 0x2a
 80038c0:	b292      	uxth	r2, r2
 80038c2:	b11a      	cbz	r2, 80038cc <HAL_I2C_EV_IRQHandler+0x604>
 80038c4:	6c22      	ldr	r2, [r4, #64]	; 0x40
 80038c6:	f042 0204 	orr.w	r2, r2, #4
 80038ca:	6422      	str	r2, [r4, #64]	; 0x40
 80038cc:	685a      	ldr	r2, [r3, #4]
 80038ce:	f422 6200 	bic.w	r2, r2, #2048	; 0x800
 80038d2:	605a      	str	r2, [r3, #4]
 80038d4:	f7fe ff02 	bl	80026dc <HAL_DMA_GetState>
 80038d8:	2801      	cmp	r0, #1
 80038da:	f43f aeae 	beq.w	800363a <HAL_I2C_EV_IRQHandler+0x372>
 80038de:	6ba3      	ldr	r3, [r4, #56]	; 0x38
 80038e0:	4aa4      	ldr	r2, [pc, #656]	; (8003b74 <HAL_I2C_EV_IRQHandler+0x8ac>)
 80038e2:	4618      	mov	r0, r3
 80038e4:	635a      	str	r2, [r3, #52]	; 0x34
 80038e6:	f7fe fead 	bl	8002644 <HAL_DMA_Abort_IT>
 80038ea:	2800      	cmp	r0, #0
 80038ec:	f43f aea5 	beq.w	800363a <HAL_I2C_EV_IRQHandler+0x372>
 80038f0:	6ba0      	ldr	r0, [r4, #56]	; 0x38
 80038f2:	6b43      	ldr	r3, [r0, #52]	; 0x34
 80038f4:	4798      	blx	r3
 80038f6:	e6a0      	b.n	800363a <HAL_I2C_EV_IRQHandler+0x372>
 80038f8:	6d21      	ldr	r1, [r4, #80]	; 0x50
 80038fa:	b911      	cbnz	r1, 8003902 <HAL_I2C_EV_IRQHandler+0x63a>
 80038fc:	2a40      	cmp	r2, #64	; 0x40
 80038fe:	f000 80cb 	beq.w	8003a98 <HAL_I2C_EV_IRQHandler+0x7d0>
 8003902:	6d22      	ldr	r2, [r4, #80]	; 0x50
 8003904:	b922      	cbnz	r2, 8003910 <HAL_I2C_EV_IRQHandler+0x648>
 8003906:	6921      	ldr	r1, [r4, #16]
 8003908:	f5b1 4f40 	cmp.w	r1, #49152	; 0xc000
 800390c:	f000 80cb 	beq.w	8003aa6 <HAL_I2C_EV_IRQHandler+0x7de>
 8003910:	8d62      	ldrh	r2, [r4, #42]	; 0x2a
 8003912:	b292      	uxth	r2, r2
 8003914:	2a00      	cmp	r2, #0
 8003916:	d148      	bne.n	80039aa <HAL_I2C_EV_IRQHandler+0x6e2>
 8003918:	9202      	str	r2, [sp, #8]
 800391a:	695a      	ldr	r2, [r3, #20]
 800391c:	9202      	str	r2, [sp, #8]
 800391e:	699a      	ldr	r2, [r3, #24]
 8003920:	9202      	str	r2, [sp, #8]
 8003922:	9a02      	ldr	r2, [sp, #8]
 8003924:	681a      	ldr	r2, [r3, #0]
 8003926:	f442 7200 	orr.w	r2, r2, #512	; 0x200
 800392a:	601a      	str	r2, [r3, #0]
 800392c:	2300      	movs	r3, #0
 800392e:	6523      	str	r3, [r4, #80]	; 0x50
 8003930:	e4f8      	b.n	8003324 <HAL_I2C_EV_IRQHandler+0x5c>
 8003932:	f894 103d 	ldrb.w	r1, [r4, #61]	; 0x3d
 8003936:	2960      	cmp	r1, #96	; 0x60
 8003938:	d075      	beq.n	8003a26 <HAL_I2C_EV_IRQHandler+0x75e>
 800393a:	695a      	ldr	r2, [r3, #20]
 800393c:	0650      	lsls	r0, r2, #25
 800393e:	d505      	bpl.n	800394c <HAL_I2C_EV_IRQHandler+0x684>
 8003940:	691a      	ldr	r2, [r3, #16]
 8003942:	6a63      	ldr	r3, [r4, #36]	; 0x24
 8003944:	701a      	strb	r2, [r3, #0]
 8003946:	6a63      	ldr	r3, [r4, #36]	; 0x24
 8003948:	3301      	adds	r3, #1
 800394a:	6263      	str	r3, [r4, #36]	; 0x24
 800394c:	4620      	mov	r0, r4
 800394e:	f7ff fc79 	bl	8003244 <HAL_I2C_ErrorCallback>
 8003952:	e78a      	b.n	800386a <HAL_I2C_EV_IRQHandler+0x5a2>
 8003954:	6ba1      	ldr	r1, [r4, #56]	; 0x38
 8003956:	2900      	cmp	r1, #0
 8003958:	f47f af0c 	bne.w	8003774 <HAL_I2C_EV_IRQHandler+0x4ac>
 800395c:	e4e2      	b.n	8003324 <HAL_I2C_EV_IRQHandler+0x5c>
 800395e:	2228      	movs	r2, #40	; 0x28
 8003960:	6323      	str	r3, [r4, #48]	; 0x30
 8003962:	4620      	mov	r0, r4
 8003964:	f884 203d 	strb.w	r2, [r4, #61]	; 0x3d
 8003968:	f7ff fc62 	bl	8003230 <HAL_I2C_SlaveRxCpltCallback>
 800396c:	e692      	b.n	8003694 <HAL_I2C_EV_IRQHandler+0x3cc>
 800396e:	2300      	movs	r3, #0
 8003970:	2220      	movs	r2, #32
 8003972:	4981      	ldr	r1, [pc, #516]	; (8003b78 <HAL_I2C_EV_IRQHandler+0x8b0>)
 8003974:	4620      	mov	r0, r4
 8003976:	62e1      	str	r1, [r4, #44]	; 0x2c
 8003978:	6323      	str	r3, [r4, #48]	; 0x30
 800397a:	f884 203d 	strb.w	r2, [r4, #61]	; 0x3d
 800397e:	f884 303e 	strb.w	r3, [r4, #62]	; 0x3e
 8003982:	f7ff fc59 	bl	8003238 <HAL_I2C_ListenCpltCallback>
 8003986:	e4cd      	b.n	8003324 <HAL_I2C_EV_IRQHandler+0x5c>
 8003988:	2200      	movs	r2, #0
 800398a:	6322      	str	r2, [r4, #48]	; 0x30
 800398c:	f884 103d 	strb.w	r1, [r4, #61]	; 0x3d
 8003990:	e74c      	b.n	800382c <HAL_I2C_EV_IRQHandler+0x564>
 8003992:	2a22      	cmp	r2, #34	; 0x22
 8003994:	f47f af39 	bne.w	800380a <HAL_I2C_EV_IRQHandler+0x542>
 8003998:	681a      	ldr	r2, [r3, #0]
 800399a:	f422 6200 	bic.w	r2, r2, #2048	; 0x800
 800399e:	601a      	str	r2, [r3, #0]
 80039a0:	685a      	ldr	r2, [r3, #4]
 80039a2:	0510      	lsls	r0, r2, #20
 80039a4:	f57f af3b 	bpl.w	800381e <HAL_I2C_EV_IRQHandler+0x556>
 80039a8:	e73c      	b.n	8003824 <HAL_I2C_EV_IRQHandler+0x55c>
 80039aa:	8d62      	ldrh	r2, [r4, #42]	; 0x2a
 80039ac:	b292      	uxth	r2, r2
 80039ae:	2a01      	cmp	r2, #1
 80039b0:	f000 8087 	beq.w	8003ac2 <HAL_I2C_EV_IRQHandler+0x7fa>
 80039b4:	8d62      	ldrh	r2, [r4, #42]	; 0x2a
 80039b6:	b292      	uxth	r2, r2
 80039b8:	2a02      	cmp	r2, #2
 80039ba:	f000 8131 	beq.w	8003c20 <HAL_I2C_EV_IRQHandler+0x958>
 80039be:	681a      	ldr	r2, [r3, #0]
 80039c0:	f442 6280 	orr.w	r2, r2, #1024	; 0x400
 80039c4:	601a      	str	r2, [r3, #0]
 80039c6:	685a      	ldr	r2, [r3, #4]
 80039c8:	0515      	lsls	r5, r2, #20
 80039ca:	d50e      	bpl.n	80039ea <HAL_I2C_EV_IRQHandler+0x722>
 80039cc:	f510 3f80 	cmn.w	r0, #65536	; 0x10000
 80039d0:	d007      	beq.n	80039e2 <HAL_I2C_EV_IRQHandler+0x71a>
 80039d2:	3801      	subs	r0, #1
 80039d4:	281f      	cmp	r0, #31
 80039d6:	d808      	bhi.n	80039ea <HAL_I2C_EV_IRQHandler+0x722>
 80039d8:	4a68      	ldr	r2, [pc, #416]	; (8003b7c <HAL_I2C_EV_IRQHandler+0x8b4>)
 80039da:	fa22 f000 	lsr.w	r0, r2, r0
 80039de:	07c0      	lsls	r0, r0, #31
 80039e0:	d503      	bpl.n	80039ea <HAL_I2C_EV_IRQHandler+0x722>
 80039e2:	685a      	ldr	r2, [r3, #4]
 80039e4:	f442 5280 	orr.w	r2, r2, #4096	; 0x1000
 80039e8:	605a      	str	r2, [r3, #4]
 80039ea:	2200      	movs	r2, #0
 80039ec:	9209      	str	r2, [sp, #36]	; 0x24
 80039ee:	695a      	ldr	r2, [r3, #20]
 80039f0:	9209      	str	r2, [sp, #36]	; 0x24
 80039f2:	699b      	ldr	r3, [r3, #24]
 80039f4:	9309      	str	r3, [sp, #36]	; 0x24
 80039f6:	9b09      	ldr	r3, [sp, #36]	; 0x24
 80039f8:	e798      	b.n	800392c <HAL_I2C_EV_IRQHandler+0x664>
 80039fa:	685a      	ldr	r2, [r3, #4]
 80039fc:	f422 6280 	bic.w	r2, r2, #1024	; 0x400
 8003a00:	605a      	str	r2, [r3, #4]
 8003a02:	691b      	ldr	r3, [r3, #16]
 8003a04:	700b      	strb	r3, [r1, #0]
 8003a06:	e5aa      	b.n	800355e <HAL_I2C_EV_IRQHandler+0x296>
 8003a08:	685a      	ldr	r2, [r3, #4]
 8003a0a:	2804      	cmp	r0, #4
 8003a0c:	f422 6280 	bic.w	r2, r2, #1024	; 0x400
 8003a10:	605a      	str	r2, [r3, #4]
 8003a12:	f43f ae9d 	beq.w	8003750 <HAL_I2C_EV_IRQHandler+0x488>
 8003a16:	2802      	cmp	r0, #2
 8003a18:	f43f ae9a 	beq.w	8003750 <HAL_I2C_EV_IRQHandler+0x488>
 8003a1c:	681a      	ldr	r2, [r3, #0]
 8003a1e:	f422 6280 	bic.w	r2, r2, #1024	; 0x400
 8003a22:	601a      	str	r2, [r3, #0]
 8003a24:	e694      	b.n	8003750 <HAL_I2C_EV_IRQHandler+0x488>
 8003a26:	2120      	movs	r1, #32
 8003a28:	f884 103d 	strb.w	r1, [r4, #61]	; 0x3d
 8003a2c:	6422      	str	r2, [r4, #64]	; 0x40
 8003a2e:	695a      	ldr	r2, [r3, #20]
 8003a30:	0655      	lsls	r5, r2, #25
 8003a32:	d506      	bpl.n	8003a42 <HAL_I2C_EV_IRQHandler+0x77a>
 8003a34:	691a      	ldr	r2, [r3, #16]
 8003a36:	6a63      	ldr	r3, [r4, #36]	; 0x24
 8003a38:	701a      	strb	r2, [r3, #0]
 8003a3a:	6a62      	ldr	r2, [r4, #36]	; 0x24
 8003a3c:	6823      	ldr	r3, [r4, #0]
 8003a3e:	3201      	adds	r2, #1
 8003a40:	6262      	str	r2, [r4, #36]	; 0x24
 8003a42:	681a      	ldr	r2, [r3, #0]
 8003a44:	4620      	mov	r0, r4
 8003a46:	f022 0201 	bic.w	r2, r2, #1
 8003a4a:	601a      	str	r2, [r3, #0]
 8003a4c:	f7ff fbfc 	bl	8003248 <HAL_I2C_AbortCpltCallback>
 8003a50:	e70b      	b.n	800386a <HAL_I2C_EV_IRQHandler+0x5a2>
 8003a52:	6ba3      	ldr	r3, [r4, #56]	; 0x38
 8003a54:	4a47      	ldr	r2, [pc, #284]	; (8003b74 <HAL_I2C_EV_IRQHandler+0x8ac>)
 8003a56:	4618      	mov	r0, r3
 8003a58:	635a      	str	r2, [r3, #52]	; 0x34
 8003a5a:	f7fe fdf3 	bl	8002644 <HAL_DMA_Abort_IT>
 8003a5e:	2800      	cmp	r0, #0
 8003a60:	f43f af03 	beq.w	800386a <HAL_I2C_EV_IRQHandler+0x5a2>
 8003a64:	6823      	ldr	r3, [r4, #0]
 8003a66:	695a      	ldr	r2, [r3, #20]
 8003a68:	0656      	lsls	r6, r2, #25
 8003a6a:	d506      	bpl.n	8003a7a <HAL_I2C_EV_IRQHandler+0x7b2>
 8003a6c:	691a      	ldr	r2, [r3, #16]
 8003a6e:	6a63      	ldr	r3, [r4, #36]	; 0x24
 8003a70:	701a      	strb	r2, [r3, #0]
 8003a72:	6a62      	ldr	r2, [r4, #36]	; 0x24
 8003a74:	6823      	ldr	r3, [r4, #0]
 8003a76:	3201      	adds	r2, #1
 8003a78:	6262      	str	r2, [r4, #36]	; 0x24
 8003a7a:	2120      	movs	r1, #32
 8003a7c:	681a      	ldr	r2, [r3, #0]
 8003a7e:	6ba0      	ldr	r0, [r4, #56]	; 0x38
 8003a80:	f022 0201 	bic.w	r2, r2, #1
 8003a84:	601a      	str	r2, [r3, #0]
 8003a86:	6b43      	ldr	r3, [r0, #52]	; 0x34
 8003a88:	f884 103d 	strb.w	r1, [r4, #61]	; 0x3d
 8003a8c:	4798      	blx	r3
 8003a8e:	e6ec      	b.n	800386a <HAL_I2C_EV_IRQHandler+0x5a2>
 8003a90:	2a21      	cmp	r2, #33	; 0x21
 8003a92:	f43f ac7d 	beq.w	8003390 <HAL_I2C_EV_IRQHandler+0xc8>
 8003a96:	e477      	b.n	8003388 <HAL_I2C_EV_IRQHandler+0xc0>
 8003a98:	9100      	str	r1, [sp, #0]
 8003a9a:	695a      	ldr	r2, [r3, #20]
 8003a9c:	9200      	str	r2, [sp, #0]
 8003a9e:	699b      	ldr	r3, [r3, #24]
 8003aa0:	9300      	str	r3, [sp, #0]
 8003aa2:	9b00      	ldr	r3, [sp, #0]
 8003aa4:	e43e      	b.n	8003324 <HAL_I2C_EV_IRQHandler+0x5c>
 8003aa6:	9201      	str	r2, [sp, #4]
 8003aa8:	695a      	ldr	r2, [r3, #20]
 8003aaa:	9201      	str	r2, [sp, #4]
 8003aac:	699a      	ldr	r2, [r3, #24]
 8003aae:	9201      	str	r2, [sp, #4]
 8003ab0:	9a01      	ldr	r2, [sp, #4]
 8003ab2:	681a      	ldr	r2, [r3, #0]
 8003ab4:	f442 7280 	orr.w	r2, r2, #256	; 0x100
 8003ab8:	601a      	str	r2, [r3, #0]
 8003aba:	6d23      	ldr	r3, [r4, #80]	; 0x50
 8003abc:	3301      	adds	r3, #1
 8003abe:	6523      	str	r3, [r4, #80]	; 0x50
 8003ac0:	e430      	b.n	8003324 <HAL_I2C_EV_IRQHandler+0x5c>
 8003ac2:	f510 3f80 	cmn.w	r0, #65536	; 0x10000
 8003ac6:	f000 80f9 	beq.w	8003cbc <HAL_I2C_EV_IRQHandler+0x9f4>
 8003aca:	2808      	cmp	r0, #8
 8003acc:	f000 80e6 	beq.w	8003c9c <HAL_I2C_EV_IRQHandler+0x9d4>
 8003ad0:	2820      	cmp	r0, #32
 8003ad2:	f000 80e3 	beq.w	8003c9c <HAL_I2C_EV_IRQHandler+0x9d4>
 8003ad6:	2d12      	cmp	r5, #18
 8003ad8:	f000 80dd 	beq.w	8003c96 <HAL_I2C_EV_IRQHandler+0x9ce>
 8003adc:	2810      	cmp	r0, #16
 8003ade:	d805      	bhi.n	8003aec <HAL_I2C_EV_IRQHandler+0x824>
 8003ae0:	4a27      	ldr	r2, [pc, #156]	; (8003b80 <HAL_I2C_EV_IRQHandler+0x8b8>)
 8003ae2:	fa22 f000 	lsr.w	r0, r2, r0
 8003ae6:	07c1      	lsls	r1, r0, #31
 8003ae8:	f100 8118 	bmi.w	8003d1c <HAL_I2C_EV_IRQHandler+0xa54>
 8003aec:	681a      	ldr	r2, [r3, #0]
 8003aee:	f422 6280 	bic.w	r2, r2, #1024	; 0x400
 8003af2:	601a      	str	r2, [r3, #0]
 8003af4:	2200      	movs	r2, #0
 8003af6:	9205      	str	r2, [sp, #20]
 8003af8:	695a      	ldr	r2, [r3, #20]
 8003afa:	9205      	str	r2, [sp, #20]
 8003afc:	699b      	ldr	r3, [r3, #24]
 8003afe:	9305      	str	r3, [sp, #20]
 8003b00:	9b05      	ldr	r3, [sp, #20]
 8003b02:	e713      	b.n	800392c <HAL_I2C_EV_IRQHandler+0x664>
 8003b04:	2801      	cmp	r0, #1
 8003b06:	681a      	ldr	r2, [r3, #0]
 8003b08:	d065      	beq.n	8003bd6 <HAL_I2C_EV_IRQHandler+0x90e>
 8003b0a:	2810      	cmp	r0, #16
 8003b0c:	d063      	beq.n	8003bd6 <HAL_I2C_EV_IRQHandler+0x90e>
 8003b0e:	2804      	cmp	r0, #4
 8003b10:	f000 80f5 	beq.w	8003cfe <HAL_I2C_EV_IRQHandler+0xa36>
 8003b14:	2802      	cmp	r0, #2
 8003b16:	f000 80f2 	beq.w	8003cfe <HAL_I2C_EV_IRQHandler+0xa36>
 8003b1a:	f442 7200 	orr.w	r2, r2, #512	; 0x200
 8003b1e:	601a      	str	r2, [r3, #0]
 8003b20:	2020      	movs	r0, #32
 8003b22:	691b      	ldr	r3, [r3, #16]
 8003b24:	700b      	strb	r3, [r1, #0]
 8003b26:	8d63      	ldrh	r3, [r4, #42]	; 0x2a
 8003b28:	6822      	ldr	r2, [r4, #0]
 8003b2a:	3b01      	subs	r3, #1
 8003b2c:	b29b      	uxth	r3, r3
 8003b2e:	8563      	strh	r3, [r4, #42]	; 0x2a
 8003b30:	6a63      	ldr	r3, [r4, #36]	; 0x24
 8003b32:	6912      	ldr	r2, [r2, #16]
 8003b34:	1c59      	adds	r1, r3, #1
 8003b36:	6261      	str	r1, [r4, #36]	; 0x24
 8003b38:	705a      	strb	r2, [r3, #1]
 8003b3a:	8d63      	ldrh	r3, [r4, #42]	; 0x2a
 8003b3c:	6821      	ldr	r1, [r4, #0]
 8003b3e:	3b01      	subs	r3, #1
 8003b40:	b29b      	uxth	r3, r3
 8003b42:	8563      	strh	r3, [r4, #42]	; 0x2a
 8003b44:	684b      	ldr	r3, [r1, #4]
 8003b46:	6a62      	ldr	r2, [r4, #36]	; 0x24
 8003b48:	f423 7340 	bic.w	r3, r3, #768	; 0x300
 8003b4c:	3201      	adds	r2, #1
 8003b4e:	6262      	str	r2, [r4, #36]	; 0x24
 8003b50:	604b      	str	r3, [r1, #4]
 8003b52:	f884 003d 	strb.w	r0, [r4, #61]	; 0x3d
 8003b56:	f894 303e 	ldrb.w	r3, [r4, #62]	; 0x3e
 8003b5a:	2b40      	cmp	r3, #64	; 0x40
 8003b5c:	d032      	beq.n	8003bc4 <HAL_I2C_EV_IRQHandler+0x8fc>
 8003b5e:	2200      	movs	r2, #0
 8003b60:	2312      	movs	r3, #18
 8003b62:	f884 203e 	strb.w	r2, [r4, #62]	; 0x3e
 8003b66:	4620      	mov	r0, r4
 8003b68:	6323      	str	r3, [r4, #48]	; 0x30
 8003b6a:	f7ff fb5d 	bl	8003228 <HAL_I2C_MasterRxCpltCallback>
 8003b6e:	f7ff bbd9 	b.w	8003324 <HAL_I2C_EV_IRQHandler+0x5c>
 8003b72:	bf00      	nop
 8003b74:	0800324d 	.word	0x0800324d
 8003b78:	ffff0000 	.word	0xffff0000
 8003b7c:	80008081 	.word	0x80008081
 8003b80:	00010014 	.word	0x00010014
 8003b84:	6ae1      	ldr	r1, [r4, #44]	; 0x2c
 8003b86:	2902      	cmp	r1, #2
 8003b88:	f43f abcc 	beq.w	8003324 <HAL_I2C_EV_IRQHandler+0x5c>
 8003b8c:	2a01      	cmp	r2, #1
 8003b8e:	f63f abc9 	bhi.w	8003324 <HAL_I2C_EV_IRQHandler+0x5c>
 8003b92:	2120      	movs	r1, #32
 8003b94:	681a      	ldr	r2, [r3, #0]
 8003b96:	6a60      	ldr	r0, [r4, #36]	; 0x24
 8003b98:	f422 6280 	bic.w	r2, r2, #1024	; 0x400
 8003b9c:	601a      	str	r2, [r3, #0]
 8003b9e:	685a      	ldr	r2, [r3, #4]
 8003ba0:	f422 62e0 	bic.w	r2, r2, #1792	; 0x700
 8003ba4:	605a      	str	r2, [r3, #4]
 8003ba6:	691b      	ldr	r3, [r3, #16]
 8003ba8:	7003      	strb	r3, [r0, #0]
 8003baa:	8d63      	ldrh	r3, [r4, #42]	; 0x2a
 8003bac:	6a62      	ldr	r2, [r4, #36]	; 0x24
 8003bae:	3b01      	subs	r3, #1
 8003bb0:	b29b      	uxth	r3, r3
 8003bb2:	8563      	strh	r3, [r4, #42]	; 0x2a
 8003bb4:	f884 103d 	strb.w	r1, [r4, #61]	; 0x3d
 8003bb8:	f894 303e 	ldrb.w	r3, [r4, #62]	; 0x3e
 8003bbc:	3201      	adds	r2, #1
 8003bbe:	2b40      	cmp	r3, #64	; 0x40
 8003bc0:	6262      	str	r2, [r4, #36]	; 0x24
 8003bc2:	d1cc      	bne.n	8003b5e <HAL_I2C_EV_IRQHandler+0x896>
 8003bc4:	2300      	movs	r3, #0
 8003bc6:	4620      	mov	r0, r4
 8003bc8:	f884 303e 	strb.w	r3, [r4, #62]	; 0x3e
 8003bcc:	6323      	str	r3, [r4, #48]	; 0x30
 8003bce:	f7ff fb37 	bl	8003240 <HAL_I2C_MemRxCpltCallback>
 8003bd2:	f7ff bba7 	b.w	8003324 <HAL_I2C_EV_IRQHandler+0x5c>
 8003bd6:	f422 6280 	bic.w	r2, r2, #1024	; 0x400
 8003bda:	601a      	str	r2, [r3, #0]
 8003bdc:	e7a0      	b.n	8003b20 <HAL_I2C_EV_IRQHandler+0x858>
 8003bde:	2d08      	cmp	r5, #8
 8003be0:	f43f ad87 	beq.w	80036f2 <HAL_I2C_EV_IRQHandler+0x42a>
 8003be4:	2d20      	cmp	r5, #32
 8003be6:	f43f ad84 	beq.w	80036f2 <HAL_I2C_EV_IRQHandler+0x42a>
 8003bea:	f515 3f80 	cmn.w	r5, #65536	; 0x10000
 8003bee:	f43f ad80 	beq.w	80036f2 <HAL_I2C_EV_IRQHandler+0x42a>
 8003bf2:	2611      	movs	r6, #17
 8003bf4:	2500      	movs	r5, #0
 8003bf6:	2120      	movs	r1, #32
 8003bf8:	685a      	ldr	r2, [r3, #4]
 8003bfa:	4620      	mov	r0, r4
 8003bfc:	f422 62e0 	bic.w	r2, r2, #1792	; 0x700
 8003c00:	605a      	str	r2, [r3, #4]
 8003c02:	6326      	str	r6, [r4, #48]	; 0x30
 8003c04:	f884 503e 	strb.w	r5, [r4, #62]	; 0x3e
 8003c08:	f884 103d 	strb.w	r1, [r4, #61]	; 0x3d
 8003c0c:	f7ff fb0a 	bl	8003224 <HAL_I2C_MasterTxCpltCallback>
 8003c10:	f7ff bb88 	b.w	8003324 <HAL_I2C_EV_IRQHandler+0x5c>
 8003c14:	685a      	ldr	r2, [r3, #4]
 8003c16:	f422 6280 	bic.w	r2, r2, #1024	; 0x400
 8003c1a:	605a      	str	r2, [r3, #4]
 8003c1c:	f7ff bb82 	b.w	8003324 <HAL_I2C_EV_IRQHandler+0x5c>
 8003c20:	2810      	cmp	r0, #16
 8003c22:	d923      	bls.n	8003c6c <HAL_I2C_EV_IRQHandler+0x9a4>
 8003c24:	2100      	movs	r1, #0
 8003c26:	681a      	ldr	r2, [r3, #0]
 8003c28:	f442 6200 	orr.w	r2, r2, #2048	; 0x800
 8003c2c:	601a      	str	r2, [r3, #0]
 8003c2e:	9107      	str	r1, [sp, #28]
 8003c30:	695a      	ldr	r2, [r3, #20]
 8003c32:	9207      	str	r2, [sp, #28]
 8003c34:	699a      	ldr	r2, [r3, #24]
 8003c36:	9207      	str	r2, [sp, #28]
 8003c38:	9a07      	ldr	r2, [sp, #28]
 8003c3a:	681a      	ldr	r2, [r3, #0]
 8003c3c:	f422 6280 	bic.w	r2, r2, #1024	; 0x400
 8003c40:	601a      	str	r2, [r3, #0]
 8003c42:	685a      	ldr	r2, [r3, #4]
 8003c44:	0512      	lsls	r2, r2, #20
 8003c46:	f57f ae71 	bpl.w	800392c <HAL_I2C_EV_IRQHandler+0x664>
 8003c4a:	f510 3f80 	cmn.w	r0, #65536	; 0x10000
 8003c4e:	d008      	beq.n	8003c62 <HAL_I2C_EV_IRQHandler+0x99a>
 8003c50:	3801      	subs	r0, #1
 8003c52:	281f      	cmp	r0, #31
 8003c54:	f63f ae6a 	bhi.w	800392c <HAL_I2C_EV_IRQHandler+0x664>
 8003c58:	4a46      	ldr	r2, [pc, #280]	; (8003d74 <HAL_I2C_EV_IRQHandler+0xaac>)
 8003c5a:	40c2      	lsrs	r2, r0
 8003c5c:	07d6      	lsls	r6, r2, #31
 8003c5e:	f57f ae65 	bpl.w	800392c <HAL_I2C_EV_IRQHandler+0x664>
 8003c62:	685a      	ldr	r2, [r3, #4]
 8003c64:	f442 5280 	orr.w	r2, r2, #4096	; 0x1000
 8003c68:	605a      	str	r2, [r3, #4]
 8003c6a:	e65f      	b.n	800392c <HAL_I2C_EV_IRQHandler+0x664>
 8003c6c:	4a42      	ldr	r2, [pc, #264]	; (8003d78 <HAL_I2C_EV_IRQHandler+0xab0>)
 8003c6e:	40c2      	lsrs	r2, r0
 8003c70:	43d2      	mvns	r2, r2
 8003c72:	f012 0201 	ands.w	r2, r2, #1
 8003c76:	d1d5      	bne.n	8003c24 <HAL_I2C_EV_IRQHandler+0x95c>
 8003c78:	6819      	ldr	r1, [r3, #0]
 8003c7a:	f441 6180 	orr.w	r1, r1, #1024	; 0x400
 8003c7e:	6019      	str	r1, [r3, #0]
 8003c80:	9208      	str	r2, [sp, #32]
 8003c82:	695a      	ldr	r2, [r3, #20]
 8003c84:	9208      	str	r2, [sp, #32]
 8003c86:	699a      	ldr	r2, [r3, #24]
 8003c88:	9208      	str	r2, [sp, #32]
 8003c8a:	9a08      	ldr	r2, [sp, #32]
 8003c8c:	e7d9      	b.n	8003c42 <HAL_I2C_EV_IRQHandler+0x97a>
 8003c8e:	f7ff fad5 	bl	800323c <HAL_I2C_MemTxCpltCallback>
 8003c92:	f7ff bb47 	b.w	8003324 <HAL_I2C_EV_IRQHandler+0x5c>
 8003c96:	2801      	cmp	r0, #1
 8003c98:	f43f af28 	beq.w	8003aec <HAL_I2C_EV_IRQHandler+0x824>
 8003c9c:	2100      	movs	r1, #0
 8003c9e:	681a      	ldr	r2, [r3, #0]
 8003ca0:	f422 6280 	bic.w	r2, r2, #1024	; 0x400
 8003ca4:	601a      	str	r2, [r3, #0]
 8003ca6:	9106      	str	r1, [sp, #24]
 8003ca8:	695a      	ldr	r2, [r3, #20]
 8003caa:	9206      	str	r2, [sp, #24]
 8003cac:	699a      	ldr	r2, [r3, #24]
 8003cae:	9206      	str	r2, [sp, #24]
 8003cb0:	9a06      	ldr	r2, [sp, #24]
 8003cb2:	681a      	ldr	r2, [r3, #0]
 8003cb4:	f442 7200 	orr.w	r2, r2, #512	; 0x200
 8003cb8:	601a      	str	r2, [r3, #0]
 8003cba:	e637      	b.n	800392c <HAL_I2C_EV_IRQHandler+0x664>
 8003cbc:	681a      	ldr	r2, [r3, #0]
 8003cbe:	f422 6280 	bic.w	r2, r2, #1024	; 0x400
 8003cc2:	601a      	str	r2, [r3, #0]
 8003cc4:	685a      	ldr	r2, [r3, #4]
 8003cc6:	f412 6200 	ands.w	r2, r2, #2048	; 0x800
 8003cca:	d01c      	beq.n	8003d06 <HAL_I2C_EV_IRQHandler+0xa3e>
 8003ccc:	2100      	movs	r1, #0
 8003cce:	681a      	ldr	r2, [r3, #0]
 8003cd0:	f422 6280 	bic.w	r2, r2, #1024	; 0x400
 8003cd4:	601a      	str	r2, [r3, #0]
 8003cd6:	9103      	str	r1, [sp, #12]
 8003cd8:	695a      	ldr	r2, [r3, #20]
 8003cda:	9203      	str	r2, [sp, #12]
 8003cdc:	699b      	ldr	r3, [r3, #24]
 8003cde:	9303      	str	r3, [sp, #12]
 8003ce0:	9b03      	ldr	r3, [sp, #12]
 8003ce2:	e623      	b.n	800392c <HAL_I2C_EV_IRQHandler+0x664>
 8003ce4:	2611      	movs	r6, #17
 8003ce6:	2520      	movs	r5, #32
 8003ce8:	6859      	ldr	r1, [r3, #4]
 8003cea:	4620      	mov	r0, r4
 8003cec:	f421 61e0 	bic.w	r1, r1, #1792	; 0x700
 8003cf0:	6059      	str	r1, [r3, #4]
 8003cf2:	6326      	str	r6, [r4, #48]	; 0x30
 8003cf4:	f884 203e 	strb.w	r2, [r4, #62]	; 0x3e
 8003cf8:	f884 503d 	strb.w	r5, [r4, #61]	; 0x3d
 8003cfc:	e50e      	b.n	800371c <HAL_I2C_EV_IRQHandler+0x454>
 8003cfe:	f442 6280 	orr.w	r2, r2, #1024	; 0x400
 8003d02:	601a      	str	r2, [r3, #0]
 8003d04:	e70c      	b.n	8003b20 <HAL_I2C_EV_IRQHandler+0x858>
 8003d06:	9204      	str	r2, [sp, #16]
 8003d08:	695a      	ldr	r2, [r3, #20]
 8003d0a:	9204      	str	r2, [sp, #16]
 8003d0c:	699a      	ldr	r2, [r3, #24]
 8003d0e:	9204      	str	r2, [sp, #16]
 8003d10:	9a04      	ldr	r2, [sp, #16]
 8003d12:	681a      	ldr	r2, [r3, #0]
 8003d14:	f442 7200 	orr.w	r2, r2, #512	; 0x200
 8003d18:	601a      	str	r2, [r3, #0]
 8003d1a:	e607      	b.n	800392c <HAL_I2C_EV_IRQHandler+0x664>
 8003d1c:	681a      	ldr	r2, [r3, #0]
 8003d1e:	f442 6280 	orr.w	r2, r2, #1024	; 0x400
 8003d22:	601a      	str	r2, [r3, #0]
 8003d24:	e6e6      	b.n	8003af4 <HAL_I2C_EV_IRQHandler+0x82c>
 8003d26:	6d22      	ldr	r2, [r4, #80]	; 0x50
 8003d28:	2a01      	cmp	r2, #1
 8003d2a:	d01b      	beq.n	8003d64 <HAL_I2C_EV_IRQHandler+0xa9c>
 8003d2c:	6d22      	ldr	r2, [r4, #80]	; 0x50
 8003d2e:	2a02      	cmp	r2, #2
 8003d30:	f47f aaf8 	bne.w	8003324 <HAL_I2C_EV_IRQHandler+0x5c>
 8003d34:	f894 203d 	ldrb.w	r2, [r4, #61]	; 0x3d
 8003d38:	2a22      	cmp	r2, #34	; 0x22
 8003d3a:	d00d      	beq.n	8003d58 <HAL_I2C_EV_IRQHandler+0xa90>
 8003d3c:	f894 203d 	ldrb.w	r2, [r4, #61]	; 0x3d
 8003d40:	2a21      	cmp	r2, #33	; 0x21
 8003d42:	f47f aaef 	bne.w	8003324 <HAL_I2C_EV_IRQHandler+0x5c>
 8003d46:	f7ff bbf2 	b.w	800352e <HAL_I2C_EV_IRQHandler+0x266>
 8003d4a:	b2d2      	uxtb	r2, r2
 8003d4c:	611a      	str	r2, [r3, #16]
 8003d4e:	6d23      	ldr	r3, [r4, #80]	; 0x50
 8003d50:	3302      	adds	r3, #2
 8003d52:	6523      	str	r3, [r4, #80]	; 0x50
 8003d54:	f7ff bae6 	b.w	8003324 <HAL_I2C_EV_IRQHandler+0x5c>
 8003d58:	681a      	ldr	r2, [r3, #0]
 8003d5a:	f442 7280 	orr.w	r2, r2, #256	; 0x100
 8003d5e:	601a      	str	r2, [r3, #0]
 8003d60:	f7ff bae0 	b.w	8003324 <HAL_I2C_EV_IRQHandler+0x5c>
 8003d64:	6ca2      	ldr	r2, [r4, #72]	; 0x48
 8003d66:	b2d2      	uxtb	r2, r2
 8003d68:	611a      	str	r2, [r3, #16]
 8003d6a:	6d23      	ldr	r3, [r4, #80]	; 0x50
 8003d6c:	3301      	adds	r3, #1
 8003d6e:	6523      	str	r3, [r4, #80]	; 0x50
 8003d70:	f7ff bad8 	b.w	8003324 <HAL_I2C_EV_IRQHandler+0x5c>
 8003d74:	80008081 	.word	0x80008081
 8003d78:	00010014 	.word	0x00010014

08003d7c <HAL_I2C_ER_IRQHandler>:
 8003d7c:	b5f8      	push	{r3, r4, r5, r6, r7, lr}
 8003d7e:	6803      	ldr	r3, [r0, #0]
 8003d80:	4604      	mov	r4, r0
 8003d82:	695d      	ldr	r5, [r3, #20]
 8003d84:	461a      	mov	r2, r3
 8003d86:	05e8      	lsls	r0, r5, #23
 8003d88:	f3c5 2640 	ubfx	r6, r5, #9, #1
 8003d8c:	6859      	ldr	r1, [r3, #4]
 8003d8e:	d572      	bpl.n	8003e76 <HAL_I2C_ER_IRQHandler+0xfa>
 8003d90:	0a08      	lsrs	r0, r1, #8
 8003d92:	07c7      	lsls	r7, r0, #31
 8003d94:	d56f      	bpl.n	8003e76 <HAL_I2C_ER_IRQHandler+0xfa>
 8003d96:	f46f 7180 	mvn.w	r1, #256	; 0x100
 8003d9a:	6159      	str	r1, [r3, #20]
 8003d9c:	6819      	ldr	r1, [r3, #0]
 8003d9e:	f441 4100 	orr.w	r1, r1, #32768	; 0x8000
 8003da2:	6019      	str	r1, [r3, #0]
 8003da4:	2e00      	cmp	r6, #0
 8003da6:	d175      	bne.n	8003e94 <HAL_I2C_ER_IRQHandler+0x118>
 8003da8:	056e      	lsls	r6, r5, #21
 8003daa:	f140 80c2 	bpl.w	8003f32 <HAL_I2C_ER_IRQHandler+0x1b6>
 8003dae:	2601      	movs	r6, #1
 8003db0:	f894 003e 	ldrb.w	r0, [r4, #62]	; 0x3e
 8003db4:	8d62      	ldrh	r2, [r4, #42]	; 0x2a
 8003db6:	f894 103d 	ldrb.w	r1, [r4, #61]	; 0x3d
 8003dba:	2820      	cmp	r0, #32
 8003dbc:	b292      	uxth	r2, r2
 8003dbe:	b2c9      	uxtb	r1, r1
 8003dc0:	6b27      	ldr	r7, [r4, #48]	; 0x30
 8003dc2:	f000 8098 	beq.w	8003ef6 <HAL_I2C_ER_IRQHandler+0x17a>
 8003dc6:	f46f 6280 	mvn.w	r2, #1024	; 0x400
 8003dca:	615a      	str	r2, [r3, #20]
 8003dcc:	f894 203e 	ldrb.w	r2, [r4, #62]	; 0x3e
 8003dd0:	f046 0604 	orr.w	r6, r6, #4
 8003dd4:	2a10      	cmp	r2, #16
 8003dd6:	d103      	bne.n	8003de0 <HAL_I2C_ER_IRQHandler+0x64>
 8003dd8:	681a      	ldr	r2, [r3, #0]
 8003dda:	f442 7200 	orr.w	r2, r2, #512	; 0x200
 8003dde:	601a      	str	r2, [r3, #0]
 8003de0:	461a      	mov	r2, r3
 8003de2:	052b      	lsls	r3, r5, #20
 8003de4:	d504      	bpl.n	8003df0 <HAL_I2C_ER_IRQHandler+0x74>
 8003de6:	f46f 6300 	mvn.w	r3, #2048	; 0x800
 8003dea:	f046 0608 	orr.w	r6, r6, #8
 8003dee:	6153      	str	r3, [r2, #20]
 8003df0:	6c23      	ldr	r3, [r4, #64]	; 0x40
 8003df2:	431e      	orrs	r6, r3
 8003df4:	6426      	str	r6, [r4, #64]	; 0x40
 8003df6:	f894 303d 	ldrb.w	r3, [r4, #61]	; 0x3d
 8003dfa:	f894 103e 	ldrb.w	r1, [r4, #62]	; 0x3e
 8003dfe:	b2db      	uxtb	r3, r3
 8003e00:	2910      	cmp	r1, #16
 8003e02:	d06e      	beq.n	8003ee2 <HAL_I2C_ER_IRQHandler+0x166>
 8003e04:	f003 0128 	and.w	r1, r3, #40	; 0x28
 8003e08:	2928      	cmp	r1, #40	; 0x28
 8003e0a:	d065      	beq.n	8003ed8 <HAL_I2C_ER_IRQHandler+0x15c>
 8003e0c:	6851      	ldr	r1, [r2, #4]
 8003e0e:	050e      	lsls	r6, r1, #20
 8003e10:	d404      	bmi.n	8003e1c <HAL_I2C_ER_IRQHandler+0xa0>
 8003e12:	2b60      	cmp	r3, #96	; 0x60
 8003e14:	d002      	beq.n	8003e1c <HAL_I2C_ER_IRQHandler+0xa0>
 8003e16:	2320      	movs	r3, #32
 8003e18:	f884 303d 	strb.w	r3, [r4, #61]	; 0x3d
 8003e1c:	2300      	movs	r3, #0
 8003e1e:	6323      	str	r3, [r4, #48]	; 0x30
 8003e20:	f884 303e 	strb.w	r3, [r4, #62]	; 0x3e
 8003e24:	6853      	ldr	r3, [r2, #4]
 8003e26:	f413 6300 	ands.w	r3, r3, #2048	; 0x800
 8003e2a:	d044      	beq.n	8003eb6 <HAL_I2C_ER_IRQHandler+0x13a>
 8003e2c:	6b61      	ldr	r1, [r4, #52]	; 0x34
 8003e2e:	6853      	ldr	r3, [r2, #4]
 8003e30:	f891 0021 	ldrb.w	r0, [r1, #33]	; 0x21
 8003e34:	f423 6300 	bic.w	r3, r3, #2048	; 0x800
 8003e38:	2801      	cmp	r0, #1
 8003e3a:	6053      	str	r3, [r2, #4]
 8003e3c:	f000 8096 	beq.w	8003f6c <HAL_I2C_ER_IRQHandler+0x1f0>
 8003e40:	4b7c      	ldr	r3, [pc, #496]	; (8004034 <HAL_I2C_ER_IRQHandler+0x2b8>)
 8003e42:	4608      	mov	r0, r1
 8003e44:	634b      	str	r3, [r1, #52]	; 0x34
 8003e46:	f7fe fbfd 	bl	8002644 <HAL_DMA_Abort_IT>
 8003e4a:	b150      	cbz	r0, 8003e62 <HAL_I2C_ER_IRQHandler+0xe6>
 8003e4c:	2520      	movs	r5, #32
 8003e4e:	6822      	ldr	r2, [r4, #0]
 8003e50:	6b60      	ldr	r0, [r4, #52]	; 0x34
 8003e52:	6813      	ldr	r3, [r2, #0]
 8003e54:	6b41      	ldr	r1, [r0, #52]	; 0x34
 8003e56:	f023 0301 	bic.w	r3, r3, #1
 8003e5a:	6013      	str	r3, [r2, #0]
 8003e5c:	f884 503d 	strb.w	r5, [r4, #61]	; 0x3d
 8003e60:	4788      	blx	r1
 8003e62:	f894 303d 	ldrb.w	r3, [r4, #61]	; 0x3d
 8003e66:	6c22      	ldr	r2, [r4, #64]	; 0x40
 8003e68:	b2db      	uxtb	r3, r3
 8003e6a:	0752      	lsls	r2, r2, #29
 8003e6c:	d502      	bpl.n	8003e74 <HAL_I2C_ER_IRQHandler+0xf8>
 8003e6e:	2b28      	cmp	r3, #40	; 0x28
 8003e70:	f000 809b 	beq.w	8003faa <HAL_I2C_ER_IRQHandler+0x22e>
 8003e74:	bdf8      	pop	{r3, r4, r5, r6, r7, pc}
 8003e76:	b116      	cbz	r6, 8003e7e <HAL_I2C_ER_IRQHandler+0x102>
 8003e78:	0a08      	lsrs	r0, r1, #8
 8003e7a:	07c6      	lsls	r6, r0, #31
 8003e7c:	d419      	bmi.n	8003eb2 <HAL_I2C_ER_IRQHandler+0x136>
 8003e7e:	f3c5 2680 	ubfx	r6, r5, #10, #1
 8003e82:	b11e      	cbz	r6, 8003e8c <HAL_I2C_ER_IRQHandler+0x110>
 8003e84:	05c8      	lsls	r0, r1, #23
 8003e86:	d5f5      	bpl.n	8003e74 <HAL_I2C_ER_IRQHandler+0xf8>
 8003e88:	2600      	movs	r6, #0
 8003e8a:	e791      	b.n	8003db0 <HAL_I2C_ER_IRQHandler+0x34>
 8003e8c:	0528      	lsls	r0, r5, #20
 8003e8e:	d5f1      	bpl.n	8003e74 <HAL_I2C_ER_IRQHandler+0xf8>
 8003e90:	0a08      	lsrs	r0, r1, #8
 8003e92:	e007      	b.n	8003ea4 <HAL_I2C_ER_IRQHandler+0x128>
 8003e94:	2603      	movs	r6, #3
 8003e96:	f46f 7100 	mvn.w	r1, #512	; 0x200
 8003e9a:	056f      	lsls	r7, r5, #21
 8003e9c:	6159      	str	r1, [r3, #20]
 8003e9e:	d487      	bmi.n	8003db0 <HAL_I2C_ER_IRQHandler+0x34>
 8003ea0:	0529      	lsls	r1, r5, #20
 8003ea2:	d504      	bpl.n	8003eae <HAL_I2C_ER_IRQHandler+0x132>
 8003ea4:	07c3      	lsls	r3, r0, #31
 8003ea6:	d49e      	bmi.n	8003de6 <HAL_I2C_ER_IRQHandler+0x6a>
 8003ea8:	2e00      	cmp	r6, #0
 8003eaa:	d0e3      	beq.n	8003e74 <HAL_I2C_ER_IRQHandler+0xf8>
 8003eac:	6823      	ldr	r3, [r4, #0]
 8003eae:	461a      	mov	r2, r3
 8003eb0:	e79e      	b.n	8003df0 <HAL_I2C_ER_IRQHandler+0x74>
 8003eb2:	2602      	movs	r6, #2
 8003eb4:	e7ef      	b.n	8003e96 <HAL_I2C_ER_IRQHandler+0x11a>
 8003eb6:	f894 103d 	ldrb.w	r1, [r4, #61]	; 0x3d
 8003eba:	2960      	cmp	r1, #96	; 0x60
 8003ebc:	d040      	beq.n	8003f40 <HAL_I2C_ER_IRQHandler+0x1c4>
 8003ebe:	6953      	ldr	r3, [r2, #20]
 8003ec0:	0659      	lsls	r1, r3, #25
 8003ec2:	d505      	bpl.n	8003ed0 <HAL_I2C_ER_IRQHandler+0x154>
 8003ec4:	6a63      	ldr	r3, [r4, #36]	; 0x24
 8003ec6:	6912      	ldr	r2, [r2, #16]
 8003ec8:	701a      	strb	r2, [r3, #0]
 8003eca:	6a63      	ldr	r3, [r4, #36]	; 0x24
 8003ecc:	3301      	adds	r3, #1
 8003ece:	6263      	str	r3, [r4, #36]	; 0x24
 8003ed0:	4620      	mov	r0, r4
 8003ed2:	f7ff f9b7 	bl	8003244 <HAL_I2C_ErrorCallback>
 8003ed6:	e7c4      	b.n	8003e62 <HAL_I2C_ER_IRQHandler+0xe6>
 8003ed8:	2300      	movs	r3, #0
 8003eda:	6323      	str	r3, [r4, #48]	; 0x30
 8003edc:	f884 103d 	strb.w	r1, [r4, #61]	; 0x3d
 8003ee0:	e7a0      	b.n	8003e24 <HAL_I2C_ER_IRQHandler+0xa8>
 8003ee2:	2b22      	cmp	r3, #34	; 0x22
 8003ee4:	d18e      	bne.n	8003e04 <HAL_I2C_ER_IRQHandler+0x88>
 8003ee6:	6813      	ldr	r3, [r2, #0]
 8003ee8:	f423 6300 	bic.w	r3, r3, #2048	; 0x800
 8003eec:	6013      	str	r3, [r2, #0]
 8003eee:	6853      	ldr	r3, [r2, #4]
 8003ef0:	051f      	lsls	r7, r3, #20
 8003ef2:	d590      	bpl.n	8003e16 <HAL_I2C_ER_IRQHandler+0x9a>
 8003ef4:	e792      	b.n	8003e1c <HAL_I2C_ER_IRQHandler+0xa0>
 8003ef6:	2a00      	cmp	r2, #0
 8003ef8:	f47f af65 	bne.w	8003dc6 <HAL_I2C_ER_IRQHandler+0x4a>
 8003efc:	f001 02f7 	and.w	r2, r1, #247	; 0xf7
 8003f00:	2a21      	cmp	r2, #33	; 0x21
 8003f02:	d005      	beq.n	8003f10 <HAL_I2C_ER_IRQHandler+0x194>
 8003f04:	2928      	cmp	r1, #40	; 0x28
 8003f06:	f47f af5e 	bne.w	8003dc6 <HAL_I2C_ER_IRQHandler+0x4a>
 8003f0a:	2f21      	cmp	r7, #33	; 0x21
 8003f0c:	f47f af5b 	bne.w	8003dc6 <HAL_I2C_ER_IRQHandler+0x4a>
 8003f10:	f894 203d 	ldrb.w	r2, [r4, #61]	; 0x3d
 8003f14:	6ae1      	ldr	r1, [r4, #44]	; 0x2c
 8003f16:	b2d2      	uxtb	r2, r2
 8003f18:	2908      	cmp	r1, #8
 8003f1a:	d058      	beq.n	8003fce <HAL_I2C_ER_IRQHandler+0x252>
 8003f1c:	2920      	cmp	r1, #32
 8003f1e:	d056      	beq.n	8003fce <HAL_I2C_ER_IRQHandler+0x252>
 8003f20:	2a21      	cmp	r2, #33	; 0x21
 8003f22:	d06d      	beq.n	8004000 <HAL_I2C_ER_IRQHandler+0x284>
 8003f24:	f46f 6280 	mvn.w	r2, #1024	; 0x400
 8003f28:	615a      	str	r2, [r3, #20]
 8003f2a:	052f      	lsls	r7, r5, #20
 8003f2c:	d5bc      	bpl.n	8003ea8 <HAL_I2C_ER_IRQHandler+0x12c>
 8003f2e:	6822      	ldr	r2, [r4, #0]
 8003f30:	e759      	b.n	8003de6 <HAL_I2C_ER_IRQHandler+0x6a>
 8003f32:	0529      	lsls	r1, r5, #20
 8003f34:	f04f 0601 	mov.w	r6, #1
 8003f38:	f53f af55 	bmi.w	8003de6 <HAL_I2C_ER_IRQHandler+0x6a>
 8003f3c:	461a      	mov	r2, r3
 8003f3e:	e757      	b.n	8003df0 <HAL_I2C_ER_IRQHandler+0x74>
 8003f40:	2120      	movs	r1, #32
 8003f42:	f884 103d 	strb.w	r1, [r4, #61]	; 0x3d
 8003f46:	6423      	str	r3, [r4, #64]	; 0x40
 8003f48:	6953      	ldr	r3, [r2, #20]
 8003f4a:	0658      	lsls	r0, r3, #25
 8003f4c:	d506      	bpl.n	8003f5c <HAL_I2C_ER_IRQHandler+0x1e0>
 8003f4e:	6912      	ldr	r2, [r2, #16]
 8003f50:	6a63      	ldr	r3, [r4, #36]	; 0x24
 8003f52:	701a      	strb	r2, [r3, #0]
 8003f54:	6a63      	ldr	r3, [r4, #36]	; 0x24
 8003f56:	6822      	ldr	r2, [r4, #0]
 8003f58:	3301      	adds	r3, #1
 8003f5a:	6263      	str	r3, [r4, #36]	; 0x24
 8003f5c:	6813      	ldr	r3, [r2, #0]
 8003f5e:	4620      	mov	r0, r4
 8003f60:	f023 0301 	bic.w	r3, r3, #1
 8003f64:	6013      	str	r3, [r2, #0]
 8003f66:	f7ff f96f 	bl	8003248 <HAL_I2C_AbortCpltCallback>
 8003f6a:	e77a      	b.n	8003e62 <HAL_I2C_ER_IRQHandler+0xe6>
 8003f6c:	6ba3      	ldr	r3, [r4, #56]	; 0x38
 8003f6e:	4a31      	ldr	r2, [pc, #196]	; (8004034 <HAL_I2C_ER_IRQHandler+0x2b8>)
 8003f70:	4618      	mov	r0, r3
 8003f72:	635a      	str	r2, [r3, #52]	; 0x34
 8003f74:	f7fe fb66 	bl	8002644 <HAL_DMA_Abort_IT>
 8003f78:	2800      	cmp	r0, #0
 8003f7a:	f43f af72 	beq.w	8003e62 <HAL_I2C_ER_IRQHandler+0xe6>
 8003f7e:	6823      	ldr	r3, [r4, #0]
 8003f80:	695a      	ldr	r2, [r3, #20]
 8003f82:	0655      	lsls	r5, r2, #25
 8003f84:	d506      	bpl.n	8003f94 <HAL_I2C_ER_IRQHandler+0x218>
 8003f86:	691a      	ldr	r2, [r3, #16]
 8003f88:	6a63      	ldr	r3, [r4, #36]	; 0x24
 8003f8a:	701a      	strb	r2, [r3, #0]
 8003f8c:	6a62      	ldr	r2, [r4, #36]	; 0x24
 8003f8e:	6823      	ldr	r3, [r4, #0]
 8003f90:	3201      	adds	r2, #1
 8003f92:	6262      	str	r2, [r4, #36]	; 0x24
 8003f94:	2120      	movs	r1, #32
 8003f96:	681a      	ldr	r2, [r3, #0]
 8003f98:	6ba0      	ldr	r0, [r4, #56]	; 0x38
 8003f9a:	f022 0201 	bic.w	r2, r2, #1
 8003f9e:	601a      	str	r2, [r3, #0]
 8003fa0:	6b43      	ldr	r3, [r0, #52]	; 0x34
 8003fa2:	f884 103d 	strb.w	r1, [r4, #61]	; 0x3d
 8003fa6:	4798      	blx	r3
 8003fa8:	e75b      	b.n	8003e62 <HAL_I2C_ER_IRQHandler+0xe6>
 8003faa:	2200      	movs	r2, #0
 8003fac:	2520      	movs	r5, #32
 8003fae:	6821      	ldr	r1, [r4, #0]
 8003fb0:	4e21      	ldr	r6, [pc, #132]	; (8004038 <HAL_I2C_ER_IRQHandler+0x2bc>)
 8003fb2:	684b      	ldr	r3, [r1, #4]
 8003fb4:	4620      	mov	r0, r4
 8003fb6:	f423 63e0 	bic.w	r3, r3, #1792	; 0x700
 8003fba:	604b      	str	r3, [r1, #4]
 8003fbc:	62e6      	str	r6, [r4, #44]	; 0x2c
 8003fbe:	6322      	str	r2, [r4, #48]	; 0x30
 8003fc0:	f884 503d 	strb.w	r5, [r4, #61]	; 0x3d
 8003fc4:	f884 203e 	strb.w	r2, [r4, #62]	; 0x3e
 8003fc8:	f7ff f936 	bl	8003238 <HAL_I2C_ListenCpltCallback>
 8003fcc:	bdf8      	pop	{r3, r4, r5, r6, r7, pc}
 8003fce:	2a28      	cmp	r2, #40	; 0x28
 8003fd0:	d1a6      	bne.n	8003f20 <HAL_I2C_ER_IRQHandler+0x1a4>
 8003fd2:	f46f 6780 	mvn.w	r7, #1024	; 0x400
 8003fd6:	2100      	movs	r1, #0
 8003fd8:	2020      	movs	r0, #32
 8003fda:	4a17      	ldr	r2, [pc, #92]	; (8004038 <HAL_I2C_ER_IRQHandler+0x2bc>)
 8003fdc:	62e2      	str	r2, [r4, #44]	; 0x2c
 8003fde:	685a      	ldr	r2, [r3, #4]
 8003fe0:	f422 62e0 	bic.w	r2, r2, #1792	; 0x700
 8003fe4:	605a      	str	r2, [r3, #4]
 8003fe6:	615f      	str	r7, [r3, #20]
 8003fe8:	681a      	ldr	r2, [r3, #0]
 8003fea:	403a      	ands	r2, r7
 8003fec:	601a      	str	r2, [r3, #0]
 8003fee:	6321      	str	r1, [r4, #48]	; 0x30
 8003ff0:	f884 003d 	strb.w	r0, [r4, #61]	; 0x3d
 8003ff4:	4620      	mov	r0, r4
 8003ff6:	f884 103e 	strb.w	r1, [r4, #62]	; 0x3e
 8003ffa:	f7ff f91d 	bl	8003238 <HAL_I2C_ListenCpltCallback>
 8003ffe:	e794      	b.n	8003f2a <HAL_I2C_ER_IRQHandler+0x1ae>
 8004000:	2720      	movs	r7, #32
 8004002:	2000      	movs	r0, #0
 8004004:	f46f 6180 	mvn.w	r1, #1024	; 0x400
 8004008:	f8df c02c 	ldr.w	ip, [pc, #44]	; 8004038 <HAL_I2C_ER_IRQHandler+0x2bc>
 800400c:	f8c4 c02c 	str.w	ip, [r4, #44]	; 0x2c
 8004010:	6322      	str	r2, [r4, #48]	; 0x30
 8004012:	f884 703d 	strb.w	r7, [r4, #61]	; 0x3d
 8004016:	f884 003e 	strb.w	r0, [r4, #62]	; 0x3e
 800401a:	685a      	ldr	r2, [r3, #4]
 800401c:	4620      	mov	r0, r4
 800401e:	f422 62e0 	bic.w	r2, r2, #1792	; 0x700
 8004022:	605a      	str	r2, [r3, #4]
 8004024:	6159      	str	r1, [r3, #20]
 8004026:	681a      	ldr	r2, [r3, #0]
 8004028:	400a      	ands	r2, r1
 800402a:	601a      	str	r2, [r3, #0]
 800402c:	f7ff f8fe 	bl	800322c <HAL_I2C_SlaveTxCpltCallback>
 8004030:	e77b      	b.n	8003f2a <HAL_I2C_ER_IRQHandler+0x1ae>
 8004032:	bf00      	nop
 8004034:	0800324d 	.word	0x0800324d
 8004038:	ffff0000 	.word	0xffff0000

0800403c <HAL_I2C_GetState>:
 800403c:	f890 003d 	ldrb.w	r0, [r0, #61]	; 0x3d
 8004040:	4770      	bx	lr
 8004042:	bf00      	nop

08004044 <HAL_I2C_GetError>:
 8004044:	6c00      	ldr	r0, [r0, #64]	; 0x40
 8004046:	4770      	bx	lr

08004048 <HAL_RCC_OscConfig>:
 8004048:	2800      	cmp	r0, #0
 800404a:	f000 8155 	beq.w	80042f8 <HAL_RCC_OscConfig+0x2b0>
 800404e:	e92d 41f0 	stmdb	sp!, {r4, r5, r6, r7, r8, lr}
 8004052:	6803      	ldr	r3, [r0, #0]
 8004054:	b082      	sub	sp, #8
 8004056:	07dd      	lsls	r5, r3, #31
 8004058:	4604      	mov	r4, r0
 800405a:	d535      	bpl.n	80040c8 <HAL_RCC_OscConfig+0x80>
 800405c:	49a8      	ldr	r1, [pc, #672]	; (8004300 <HAL_RCC_OscConfig+0x2b8>)
 800405e:	684a      	ldr	r2, [r1, #4]
 8004060:	f002 020c 	and.w	r2, r2, #12
 8004064:	2a04      	cmp	r2, #4
 8004066:	f000 8105 	beq.w	8004274 <HAL_RCC_OscConfig+0x22c>
 800406a:	684a      	ldr	r2, [r1, #4]
 800406c:	f002 020c 	and.w	r2, r2, #12
 8004070:	2a08      	cmp	r2, #8
 8004072:	f000 80fb 	beq.w	800426c <HAL_RCC_OscConfig+0x224>
 8004076:	6863      	ldr	r3, [r4, #4]
 8004078:	f5b3 3f80 	cmp.w	r3, #65536	; 0x10000
 800407c:	d010      	beq.n	80040a0 <HAL_RCC_OscConfig+0x58>
 800407e:	2b00      	cmp	r3, #0
 8004080:	f000 8120 	beq.w	80042c4 <HAL_RCC_OscConfig+0x27c>
 8004084:	f5b3 2fa0 	cmp.w	r3, #327680	; 0x50000
 8004088:	f000 8178 	beq.w	800437c <HAL_RCC_OscConfig+0x334>
 800408c:	4b9c      	ldr	r3, [pc, #624]	; (8004300 <HAL_RCC_OscConfig+0x2b8>)
 800408e:	681a      	ldr	r2, [r3, #0]
 8004090:	f422 3280 	bic.w	r2, r2, #65536	; 0x10000
 8004094:	601a      	str	r2, [r3, #0]
 8004096:	681a      	ldr	r2, [r3, #0]
 8004098:	f422 2280 	bic.w	r2, r2, #262144	; 0x40000
 800409c:	601a      	str	r2, [r3, #0]
 800409e:	e004      	b.n	80040aa <HAL_RCC_OscConfig+0x62>
 80040a0:	4a97      	ldr	r2, [pc, #604]	; (8004300 <HAL_RCC_OscConfig+0x2b8>)
 80040a2:	6813      	ldr	r3, [r2, #0]
 80040a4:	f443 3380 	orr.w	r3, r3, #65536	; 0x10000
 80040a8:	6013      	str	r3, [r2, #0]
 80040aa:	f7fe fa57 	bl	800255c <HAL_GetTick>
 80040ae:	4d94      	ldr	r5, [pc, #592]	; (8004300 <HAL_RCC_OscConfig+0x2b8>)
 80040b0:	4606      	mov	r6, r0
 80040b2:	e005      	b.n	80040c0 <HAL_RCC_OscConfig+0x78>
 80040b4:	f7fe fa52 	bl	800255c <HAL_GetTick>
 80040b8:	1b80      	subs	r0, r0, r6
 80040ba:	2864      	cmp	r0, #100	; 0x64
 80040bc:	f200 80f5 	bhi.w	80042aa <HAL_RCC_OscConfig+0x262>
 80040c0:	682b      	ldr	r3, [r5, #0]
 80040c2:	039a      	lsls	r2, r3, #14
 80040c4:	d5f6      	bpl.n	80040b4 <HAL_RCC_OscConfig+0x6c>
 80040c6:	6823      	ldr	r3, [r4, #0]
 80040c8:	079f      	lsls	r7, r3, #30
 80040ca:	d44d      	bmi.n	8004168 <HAL_RCC_OscConfig+0x120>
 80040cc:	071a      	lsls	r2, r3, #28
 80040ce:	d522      	bpl.n	8004116 <HAL_RCC_OscConfig+0xce>
 80040d0:	69a3      	ldr	r3, [r4, #24]
 80040d2:	2b00      	cmp	r3, #0
 80040d4:	f000 80ba 	beq.w	800424c <HAL_RCC_OscConfig+0x204>
 80040d8:	2201      	movs	r2, #1
 80040da:	4b8a      	ldr	r3, [pc, #552]	; (8004304 <HAL_RCC_OscConfig+0x2bc>)
 80040dc:	4d88      	ldr	r5, [pc, #544]	; (8004300 <HAL_RCC_OscConfig+0x2b8>)
 80040de:	601a      	str	r2, [r3, #0]
 80040e0:	f7fe fa3c 	bl	800255c <HAL_GetTick>
 80040e4:	4606      	mov	r6, r0
 80040e6:	e005      	b.n	80040f4 <HAL_RCC_OscConfig+0xac>
 80040e8:	f7fe fa38 	bl	800255c <HAL_GetTick>
 80040ec:	1b80      	subs	r0, r0, r6
 80040ee:	2802      	cmp	r0, #2
 80040f0:	f200 80db 	bhi.w	80042aa <HAL_RCC_OscConfig+0x262>
 80040f4:	6a6b      	ldr	r3, [r5, #36]	; 0x24
 80040f6:	079b      	lsls	r3, r3, #30
 80040f8:	d5f6      	bpl.n	80040e8 <HAL_RCC_OscConfig+0xa0>
 80040fa:	4b83      	ldr	r3, [pc, #524]	; (8004308 <HAL_RCC_OscConfig+0x2c0>)
 80040fc:	4a83      	ldr	r2, [pc, #524]	; (800430c <HAL_RCC_OscConfig+0x2c4>)
 80040fe:	681b      	ldr	r3, [r3, #0]
 8004100:	fba2 2303 	umull	r2, r3, r2, r3
 8004104:	0a5b      	lsrs	r3, r3, #9
 8004106:	9301      	str	r3, [sp, #4]
 8004108:	bf00      	nop
 800410a:	9b01      	ldr	r3, [sp, #4]
 800410c:	1e5a      	subs	r2, r3, #1
 800410e:	9201      	str	r2, [sp, #4]
 8004110:	2b00      	cmp	r3, #0
 8004112:	d1f9      	bne.n	8004108 <HAL_RCC_OscConfig+0xc0>
 8004114:	6823      	ldr	r3, [r4, #0]
 8004116:	075d      	lsls	r5, r3, #29
 8004118:	d569      	bpl.n	80041ee <HAL_RCC_OscConfig+0x1a6>
 800411a:	4b79      	ldr	r3, [pc, #484]	; (8004300 <HAL_RCC_OscConfig+0x2b8>)
 800411c:	69da      	ldr	r2, [r3, #28]
 800411e:	00d0      	lsls	r0, r2, #3
 8004120:	f100 80ec 	bmi.w	80042fc <HAL_RCC_OscConfig+0x2b4>
 8004124:	2501      	movs	r5, #1
 8004126:	69da      	ldr	r2, [r3, #28]
 8004128:	f042 5280 	orr.w	r2, r2, #268435456	; 0x10000000
 800412c:	61da      	str	r2, [r3, #28]
 800412e:	69db      	ldr	r3, [r3, #28]
 8004130:	f003 5380 	and.w	r3, r3, #268435456	; 0x10000000
 8004134:	9300      	str	r3, [sp, #0]
 8004136:	9b00      	ldr	r3, [sp, #0]
 8004138:	4b75      	ldr	r3, [pc, #468]	; (8004310 <HAL_RCC_OscConfig+0x2c8>)
 800413a:	681a      	ldr	r2, [r3, #0]
 800413c:	05d1      	lsls	r1, r2, #23
 800413e:	f140 80a3 	bpl.w	8004288 <HAL_RCC_OscConfig+0x240>
 8004142:	68e3      	ldr	r3, [r4, #12]
 8004144:	2b01      	cmp	r3, #1
 8004146:	d037      	beq.n	80041b8 <HAL_RCC_OscConfig+0x170>
 8004148:	2b00      	cmp	r3, #0
 800414a:	f000 80e7 	beq.w	800431c <HAL_RCC_OscConfig+0x2d4>
 800414e:	2b05      	cmp	r3, #5
 8004150:	4b6b      	ldr	r3, [pc, #428]	; (8004300 <HAL_RCC_OscConfig+0x2b8>)
 8004152:	6a1a      	ldr	r2, [r3, #32]
 8004154:	f000 811f 	beq.w	8004396 <HAL_RCC_OscConfig+0x34e>
 8004158:	f022 0201 	bic.w	r2, r2, #1
 800415c:	621a      	str	r2, [r3, #32]
 800415e:	6a1a      	ldr	r2, [r3, #32]
 8004160:	f022 0204 	bic.w	r2, r2, #4
 8004164:	621a      	str	r2, [r3, #32]
 8004166:	e02c      	b.n	80041c2 <HAL_RCC_OscConfig+0x17a>
 8004168:	4a65      	ldr	r2, [pc, #404]	; (8004300 <HAL_RCC_OscConfig+0x2b8>)
 800416a:	6851      	ldr	r1, [r2, #4]
 800416c:	f011 0f0c 	tst.w	r1, #12
 8004170:	d061      	beq.n	8004236 <HAL_RCC_OscConfig+0x1ee>
 8004172:	6851      	ldr	r1, [r2, #4]
 8004174:	f001 010c 	and.w	r1, r1, #12
 8004178:	2908      	cmp	r1, #8
 800417a:	d059      	beq.n	8004230 <HAL_RCC_OscConfig+0x1e8>
 800417c:	6923      	ldr	r3, [r4, #16]
 800417e:	2b00      	cmp	r3, #0
 8004180:	f000 80eb 	beq.w	800435a <HAL_RCC_OscConfig+0x312>
 8004184:	2201      	movs	r2, #1
 8004186:	4b63      	ldr	r3, [pc, #396]	; (8004314 <HAL_RCC_OscConfig+0x2cc>)
 8004188:	4d5d      	ldr	r5, [pc, #372]	; (8004300 <HAL_RCC_OscConfig+0x2b8>)
 800418a:	601a      	str	r2, [r3, #0]
 800418c:	f7fe f9e6 	bl	800255c <HAL_GetTick>
 8004190:	4606      	mov	r6, r0
 8004192:	e005      	b.n	80041a0 <HAL_RCC_OscConfig+0x158>
 8004194:	f7fe f9e2 	bl	800255c <HAL_GetTick>
 8004198:	1b80      	subs	r0, r0, r6
 800419a:	2802      	cmp	r0, #2
 800419c:	f200 8085 	bhi.w	80042aa <HAL_RCC_OscConfig+0x262>
 80041a0:	682b      	ldr	r3, [r5, #0]
 80041a2:	0798      	lsls	r0, r3, #30
 80041a4:	d5f6      	bpl.n	8004194 <HAL_RCC_OscConfig+0x14c>
 80041a6:	682b      	ldr	r3, [r5, #0]
 80041a8:	6962      	ldr	r2, [r4, #20]
 80041aa:	f023 03f8 	bic.w	r3, r3, #248	; 0xf8
 80041ae:	ea43 03c2 	orr.w	r3, r3, r2, lsl #3
 80041b2:	602b      	str	r3, [r5, #0]
 80041b4:	6823      	ldr	r3, [r4, #0]
 80041b6:	e789      	b.n	80040cc <HAL_RCC_OscConfig+0x84>
 80041b8:	4a51      	ldr	r2, [pc, #324]	; (8004300 <HAL_RCC_OscConfig+0x2b8>)
 80041ba:	6a13      	ldr	r3, [r2, #32]
 80041bc:	f043 0301 	orr.w	r3, r3, #1
 80041c0:	6213      	str	r3, [r2, #32]
 80041c2:	f7fe f9cb 	bl	800255c <HAL_GetTick>
 80041c6:	4e4e      	ldr	r6, [pc, #312]	; (8004300 <HAL_RCC_OscConfig+0x2b8>)
 80041c8:	4680      	mov	r8, r0
 80041ca:	f241 3788 	movw	r7, #5000	; 0x1388
 80041ce:	e005      	b.n	80041dc <HAL_RCC_OscConfig+0x194>
 80041d0:	f7fe f9c4 	bl	800255c <HAL_GetTick>
 80041d4:	eba0 0008 	sub.w	r0, r0, r8
 80041d8:	42b8      	cmp	r0, r7
 80041da:	d866      	bhi.n	80042aa <HAL_RCC_OscConfig+0x262>
 80041dc:	6a33      	ldr	r3, [r6, #32]
 80041de:	079b      	lsls	r3, r3, #30
 80041e0:	d5f6      	bpl.n	80041d0 <HAL_RCC_OscConfig+0x188>
 80041e2:	b125      	cbz	r5, 80041ee <HAL_RCC_OscConfig+0x1a6>
 80041e4:	4a46      	ldr	r2, [pc, #280]	; (8004300 <HAL_RCC_OscConfig+0x2b8>)
 80041e6:	69d3      	ldr	r3, [r2, #28]
 80041e8:	f023 5380 	bic.w	r3, r3, #268435456	; 0x10000000
 80041ec:	61d3      	str	r3, [r2, #28]
 80041ee:	69e0      	ldr	r0, [r4, #28]
 80041f0:	b1d0      	cbz	r0, 8004228 <HAL_RCC_OscConfig+0x1e0>
 80041f2:	4d43      	ldr	r5, [pc, #268]	; (8004300 <HAL_RCC_OscConfig+0x2b8>)
 80041f4:	686a      	ldr	r2, [r5, #4]
 80041f6:	f002 020c 	and.w	r2, r2, #12
 80041fa:	2a08      	cmp	r2, #8
 80041fc:	f000 80d3 	beq.w	80043a6 <HAL_RCC_OscConfig+0x35e>
 8004200:	2802      	cmp	r0, #2
 8004202:	f04f 0100 	mov.w	r1, #0
 8004206:	4a44      	ldr	r2, [pc, #272]	; (8004318 <HAL_RCC_OscConfig+0x2d0>)
 8004208:	f000 80de 	beq.w	80043c8 <HAL_RCC_OscConfig+0x380>
 800420c:	6011      	str	r1, [r2, #0]
 800420e:	f7fe f9a5 	bl	800255c <HAL_GetTick>
 8004212:	462c      	mov	r4, r5
 8004214:	4605      	mov	r5, r0
 8004216:	e004      	b.n	8004222 <HAL_RCC_OscConfig+0x1da>
 8004218:	f7fe f9a0 	bl	800255c <HAL_GetTick>
 800421c:	1b40      	subs	r0, r0, r5
 800421e:	2802      	cmp	r0, #2
 8004220:	d843      	bhi.n	80042aa <HAL_RCC_OscConfig+0x262>
 8004222:	6823      	ldr	r3, [r4, #0]
 8004224:	019b      	lsls	r3, r3, #6
 8004226:	d4f7      	bmi.n	8004218 <HAL_RCC_OscConfig+0x1d0>
 8004228:	2000      	movs	r0, #0
 800422a:	b002      	add	sp, #8
 800422c:	e8bd 81f0 	ldmia.w	sp!, {r4, r5, r6, r7, r8, pc}
 8004230:	6852      	ldr	r2, [r2, #4]
 8004232:	03d6      	lsls	r6, r2, #15
 8004234:	d4a2      	bmi.n	800417c <HAL_RCC_OscConfig+0x134>
 8004236:	4a32      	ldr	r2, [pc, #200]	; (8004300 <HAL_RCC_OscConfig+0x2b8>)
 8004238:	6812      	ldr	r2, [r2, #0]
 800423a:	0795      	lsls	r5, r2, #30
 800423c:	d539      	bpl.n	80042b2 <HAL_RCC_OscConfig+0x26a>
 800423e:	6922      	ldr	r2, [r4, #16]
 8004240:	2a01      	cmp	r2, #1
 8004242:	d036      	beq.n	80042b2 <HAL_RCC_OscConfig+0x26a>
 8004244:	2001      	movs	r0, #1
 8004246:	b002      	add	sp, #8
 8004248:	e8bd 81f0 	ldmia.w	sp!, {r4, r5, r6, r7, r8, pc}
 800424c:	4a2d      	ldr	r2, [pc, #180]	; (8004304 <HAL_RCC_OscConfig+0x2bc>)
 800424e:	4d2c      	ldr	r5, [pc, #176]	; (8004300 <HAL_RCC_OscConfig+0x2b8>)
 8004250:	6013      	str	r3, [r2, #0]
 8004252:	f7fe f983 	bl	800255c <HAL_GetTick>
 8004256:	4606      	mov	r6, r0
 8004258:	e004      	b.n	8004264 <HAL_RCC_OscConfig+0x21c>
 800425a:	f7fe f97f 	bl	800255c <HAL_GetTick>
 800425e:	1b80      	subs	r0, r0, r6
 8004260:	2802      	cmp	r0, #2
 8004262:	d822      	bhi.n	80042aa <HAL_RCC_OscConfig+0x262>
 8004264:	6a6b      	ldr	r3, [r5, #36]	; 0x24
 8004266:	079f      	lsls	r7, r3, #30
 8004268:	d4f7      	bmi.n	800425a <HAL_RCC_OscConfig+0x212>
 800426a:	e753      	b.n	8004114 <HAL_RCC_OscConfig+0xcc>
 800426c:	684a      	ldr	r2, [r1, #4]
 800426e:	03d0      	lsls	r0, r2, #15
 8004270:	f57f af01 	bpl.w	8004076 <HAL_RCC_OscConfig+0x2e>
 8004274:	4a22      	ldr	r2, [pc, #136]	; (8004300 <HAL_RCC_OscConfig+0x2b8>)
 8004276:	6812      	ldr	r2, [r2, #0]
 8004278:	0391      	lsls	r1, r2, #14
 800427a:	f57f af25 	bpl.w	80040c8 <HAL_RCC_OscConfig+0x80>
 800427e:	6862      	ldr	r2, [r4, #4]
 8004280:	2a00      	cmp	r2, #0
 8004282:	f47f af21 	bne.w	80040c8 <HAL_RCC_OscConfig+0x80>
 8004286:	e7dd      	b.n	8004244 <HAL_RCC_OscConfig+0x1fc>
 8004288:	681a      	ldr	r2, [r3, #0]
 800428a:	461e      	mov	r6, r3
 800428c:	f442 7280 	orr.w	r2, r2, #256	; 0x100
 8004290:	601a      	str	r2, [r3, #0]
 8004292:	f7fe f963 	bl	800255c <HAL_GetTick>
 8004296:	4607      	mov	r7, r0
 8004298:	6833      	ldr	r3, [r6, #0]
 800429a:	05da      	lsls	r2, r3, #23
 800429c:	f53f af51 	bmi.w	8004142 <HAL_RCC_OscConfig+0xfa>
 80042a0:	f7fe f95c 	bl	800255c <HAL_GetTick>
 80042a4:	1bc0      	subs	r0, r0, r7
 80042a6:	2864      	cmp	r0, #100	; 0x64
 80042a8:	d9f6      	bls.n	8004298 <HAL_RCC_OscConfig+0x250>
 80042aa:	2003      	movs	r0, #3
 80042ac:	b002      	add	sp, #8
 80042ae:	e8bd 81f0 	ldmia.w	sp!, {r4, r5, r6, r7, r8, pc}
 80042b2:	4913      	ldr	r1, [pc, #76]	; (8004300 <HAL_RCC_OscConfig+0x2b8>)
 80042b4:	6960      	ldr	r0, [r4, #20]
 80042b6:	680a      	ldr	r2, [r1, #0]
 80042b8:	f022 02f8 	bic.w	r2, r2, #248	; 0xf8
 80042bc:	ea42 02c0 	orr.w	r2, r2, r0, lsl #3
 80042c0:	600a      	str	r2, [r1, #0]
 80042c2:	e703      	b.n	80040cc <HAL_RCC_OscConfig+0x84>
 80042c4:	f103 4380 	add.w	r3, r3, #1073741824	; 0x40000000
 80042c8:	f503 3304 	add.w	r3, r3, #135168	; 0x21000
 80042cc:	681a      	ldr	r2, [r3, #0]
 80042ce:	461d      	mov	r5, r3
 80042d0:	f422 3280 	bic.w	r2, r2, #65536	; 0x10000
 80042d4:	601a      	str	r2, [r3, #0]
 80042d6:	681a      	ldr	r2, [r3, #0]
 80042d8:	f422 2280 	bic.w	r2, r2, #262144	; 0x40000
 80042dc:	601a      	str	r2, [r3, #0]
 80042de:	f7fe f93d 	bl	800255c <HAL_GetTick>
 80042e2:	4606      	mov	r6, r0
 80042e4:	e004      	b.n	80042f0 <HAL_RCC_OscConfig+0x2a8>
 80042e6:	f7fe f939 	bl	800255c <HAL_GetTick>
 80042ea:	1b80      	subs	r0, r0, r6
 80042ec:	2864      	cmp	r0, #100	; 0x64
 80042ee:	d8dc      	bhi.n	80042aa <HAL_RCC_OscConfig+0x262>
 80042f0:	682b      	ldr	r3, [r5, #0]
 80042f2:	039b      	lsls	r3, r3, #14
 80042f4:	d4f7      	bmi.n	80042e6 <HAL_RCC_OscConfig+0x29e>
 80042f6:	e6e6      	b.n	80040c6 <HAL_RCC_OscConfig+0x7e>
 80042f8:	2001      	movs	r0, #1
 80042fa:	4770      	bx	lr
 80042fc:	2500      	movs	r5, #0
 80042fe:	e71b      	b.n	8004138 <HAL_RCC_OscConfig+0xf0>
 8004300:	40021000 	.word	0x40021000
 8004304:	42420480 	.word	0x42420480
 8004308:	2000000c 	.word	0x2000000c
 800430c:	10624dd3 	.word	0x10624dd3
 8004310:	40007000 	.word	0x40007000
 8004314:	42420000 	.word	0x42420000
 8004318:	42420060 	.word	0x42420060
 800431c:	f103 4380 	add.w	r3, r3, #1073741824	; 0x40000000
 8004320:	f503 3304 	add.w	r3, r3, #135168	; 0x21000
 8004324:	6a1a      	ldr	r2, [r3, #32]
 8004326:	461e      	mov	r6, r3
 8004328:	f022 0201 	bic.w	r2, r2, #1
 800432c:	621a      	str	r2, [r3, #32]
 800432e:	6a1a      	ldr	r2, [r3, #32]
 8004330:	f241 3888 	movw	r8, #5000	; 0x1388
 8004334:	f022 0204 	bic.w	r2, r2, #4
 8004338:	621a      	str	r2, [r3, #32]
 800433a:	f7fe f90f 	bl	800255c <HAL_GetTick>
 800433e:	4607      	mov	r7, r0
 8004340:	e004      	b.n	800434c <HAL_RCC_OscConfig+0x304>
 8004342:	f7fe f90b 	bl	800255c <HAL_GetTick>
 8004346:	1bc0      	subs	r0, r0, r7
 8004348:	4540      	cmp	r0, r8
 800434a:	d8ae      	bhi.n	80042aa <HAL_RCC_OscConfig+0x262>
 800434c:	6a33      	ldr	r3, [r6, #32]
 800434e:	0798      	lsls	r0, r3, #30
 8004350:	d4f7      	bmi.n	8004342 <HAL_RCC_OscConfig+0x2fa>
 8004352:	2d00      	cmp	r5, #0
 8004354:	f43f af4b 	beq.w	80041ee <HAL_RCC_OscConfig+0x1a6>
 8004358:	e744      	b.n	80041e4 <HAL_RCC_OscConfig+0x19c>
 800435a:	4a34      	ldr	r2, [pc, #208]	; (800442c <HAL_RCC_OscConfig+0x3e4>)
 800435c:	4d34      	ldr	r5, [pc, #208]	; (8004430 <HAL_RCC_OscConfig+0x3e8>)
 800435e:	6013      	str	r3, [r2, #0]
 8004360:	f7fe f8fc 	bl	800255c <HAL_GetTick>
 8004364:	4606      	mov	r6, r0
 8004366:	e004      	b.n	8004372 <HAL_RCC_OscConfig+0x32a>
 8004368:	f7fe f8f8 	bl	800255c <HAL_GetTick>
 800436c:	1b80      	subs	r0, r0, r6
 800436e:	2802      	cmp	r0, #2
 8004370:	d89b      	bhi.n	80042aa <HAL_RCC_OscConfig+0x262>
 8004372:	682b      	ldr	r3, [r5, #0]
 8004374:	0799      	lsls	r1, r3, #30
 8004376:	d4f7      	bmi.n	8004368 <HAL_RCC_OscConfig+0x320>
 8004378:	6823      	ldr	r3, [r4, #0]
 800437a:	e6a7      	b.n	80040cc <HAL_RCC_OscConfig+0x84>
 800437c:	f103 4380 	add.w	r3, r3, #1073741824	; 0x40000000
 8004380:	f5a3 333c 	sub.w	r3, r3, #192512	; 0x2f000
 8004384:	681a      	ldr	r2, [r3, #0]
 8004386:	f442 2280 	orr.w	r2, r2, #262144	; 0x40000
 800438a:	601a      	str	r2, [r3, #0]
 800438c:	681a      	ldr	r2, [r3, #0]
 800438e:	f442 3280 	orr.w	r2, r2, #65536	; 0x10000
 8004392:	601a      	str	r2, [r3, #0]
 8004394:	e689      	b.n	80040aa <HAL_RCC_OscConfig+0x62>
 8004396:	f042 0204 	orr.w	r2, r2, #4
 800439a:	621a      	str	r2, [r3, #32]
 800439c:	6a1a      	ldr	r2, [r3, #32]
 800439e:	f042 0201 	orr.w	r2, r2, #1
 80043a2:	621a      	str	r2, [r3, #32]
 80043a4:	e70d      	b.n	80041c2 <HAL_RCC_OscConfig+0x17a>
 80043a6:	2801      	cmp	r0, #1
 80043a8:	f43f af4d 	beq.w	8004246 <HAL_RCC_OscConfig+0x1fe>
 80043ac:	686b      	ldr	r3, [r5, #4]
 80043ae:	6a22      	ldr	r2, [r4, #32]
 80043b0:	f403 3180 	and.w	r1, r3, #65536	; 0x10000
 80043b4:	4291      	cmp	r1, r2
 80043b6:	f47f af45 	bne.w	8004244 <HAL_RCC_OscConfig+0x1fc>
 80043ba:	6a60      	ldr	r0, [r4, #36]	; 0x24
 80043bc:	f403 1370 	and.w	r3, r3, #3932160	; 0x3c0000
 80043c0:	1a18      	subs	r0, r3, r0
 80043c2:	bf18      	it	ne
 80043c4:	2001      	movne	r0, #1
 80043c6:	e73e      	b.n	8004246 <HAL_RCC_OscConfig+0x1fe>
 80043c8:	6011      	str	r1, [r2, #0]
 80043ca:	f7fe f8c7 	bl	800255c <HAL_GetTick>
 80043ce:	4606      	mov	r6, r0
 80043d0:	e005      	b.n	80043de <HAL_RCC_OscConfig+0x396>
 80043d2:	f7fe f8c3 	bl	800255c <HAL_GetTick>
 80043d6:	1b80      	subs	r0, r0, r6
 80043d8:	2802      	cmp	r0, #2
 80043da:	f63f af66 	bhi.w	80042aa <HAL_RCC_OscConfig+0x262>
 80043de:	682b      	ldr	r3, [r5, #0]
 80043e0:	0199      	lsls	r1, r3, #6
 80043e2:	d4f6      	bmi.n	80043d2 <HAL_RCC_OscConfig+0x38a>
 80043e4:	6a22      	ldr	r2, [r4, #32]
 80043e6:	f5b2 3f80 	cmp.w	r2, #65536	; 0x10000
 80043ea:	d105      	bne.n	80043f8 <HAL_RCC_OscConfig+0x3b0>
 80043ec:	686b      	ldr	r3, [r5, #4]
 80043ee:	68a1      	ldr	r1, [r4, #8]
 80043f0:	f423 3300 	bic.w	r3, r3, #131072	; 0x20000
 80043f4:	430b      	orrs	r3, r1
 80043f6:	606b      	str	r3, [r5, #4]
 80043f8:	2501      	movs	r5, #1
 80043fa:	4b0d      	ldr	r3, [pc, #52]	; (8004430 <HAL_RCC_OscConfig+0x3e8>)
 80043fc:	6a60      	ldr	r0, [r4, #36]	; 0x24
 80043fe:	6859      	ldr	r1, [r3, #4]
 8004400:	4302      	orrs	r2, r0
 8004402:	f421 1174 	bic.w	r1, r1, #3997696	; 0x3d0000
 8004406:	480b      	ldr	r0, [pc, #44]	; (8004434 <HAL_RCC_OscConfig+0x3ec>)
 8004408:	430a      	orrs	r2, r1
 800440a:	605a      	str	r2, [r3, #4]
 800440c:	6005      	str	r5, [r0, #0]
 800440e:	461c      	mov	r4, r3
 8004410:	f7fe f8a4 	bl	800255c <HAL_GetTick>
 8004414:	4605      	mov	r5, r0
 8004416:	e005      	b.n	8004424 <HAL_RCC_OscConfig+0x3dc>
 8004418:	f7fe f8a0 	bl	800255c <HAL_GetTick>
 800441c:	1b40      	subs	r0, r0, r5
 800441e:	2802      	cmp	r0, #2
 8004420:	f63f af43 	bhi.w	80042aa <HAL_RCC_OscConfig+0x262>
 8004424:	6823      	ldr	r3, [r4, #0]
 8004426:	019a      	lsls	r2, r3, #6
 8004428:	d5f6      	bpl.n	8004418 <HAL_RCC_OscConfig+0x3d0>
 800442a:	e6fd      	b.n	8004228 <HAL_RCC_OscConfig+0x1e0>
 800442c:	42420000 	.word	0x42420000
 8004430:	40021000 	.word	0x40021000
 8004434:	42420060 	.word	0x42420060

08004438 <HAL_RCC_ClockConfig>:
 8004438:	b178      	cbz	r0, 800445a <HAL_RCC_ClockConfig+0x22>
 800443a:	4a5d      	ldr	r2, [pc, #372]	; (80045b0 <HAL_RCC_ClockConfig+0x178>)
 800443c:	6813      	ldr	r3, [r2, #0]
 800443e:	f003 0307 	and.w	r3, r3, #7
 8004442:	428b      	cmp	r3, r1
 8004444:	d20b      	bcs.n	800445e <HAL_RCC_ClockConfig+0x26>
 8004446:	6813      	ldr	r3, [r2, #0]
 8004448:	f023 0307 	bic.w	r3, r3, #7
 800444c:	430b      	orrs	r3, r1
 800444e:	6013      	str	r3, [r2, #0]
 8004450:	6813      	ldr	r3, [r2, #0]
 8004452:	f003 0307 	and.w	r3, r3, #7
 8004456:	428b      	cmp	r3, r1
 8004458:	d001      	beq.n	800445e <HAL_RCC_ClockConfig+0x26>
 800445a:	2001      	movs	r0, #1
 800445c:	4770      	bx	lr
 800445e:	e92d 41f0 	stmdb	sp!, {r4, r5, r6, r7, r8, lr}
 8004462:	6803      	ldr	r3, [r0, #0]
 8004464:	b086      	sub	sp, #24
 8004466:	079d      	lsls	r5, r3, #30
 8004468:	d514      	bpl.n	8004494 <HAL_RCC_ClockConfig+0x5c>
 800446a:	075c      	lsls	r4, r3, #29
 800446c:	d504      	bpl.n	8004478 <HAL_RCC_ClockConfig+0x40>
 800446e:	4c51      	ldr	r4, [pc, #324]	; (80045b4 <HAL_RCC_ClockConfig+0x17c>)
 8004470:	6862      	ldr	r2, [r4, #4]
 8004472:	f442 62e0 	orr.w	r2, r2, #1792	; 0x700
 8004476:	6062      	str	r2, [r4, #4]
 8004478:	071a      	lsls	r2, r3, #28
 800447a:	d504      	bpl.n	8004486 <HAL_RCC_ClockConfig+0x4e>
 800447c:	4c4d      	ldr	r4, [pc, #308]	; (80045b4 <HAL_RCC_ClockConfig+0x17c>)
 800447e:	6862      	ldr	r2, [r4, #4]
 8004480:	f442 5260 	orr.w	r2, r2, #14336	; 0x3800
 8004484:	6062      	str	r2, [r4, #4]
 8004486:	4c4b      	ldr	r4, [pc, #300]	; (80045b4 <HAL_RCC_ClockConfig+0x17c>)
 8004488:	6885      	ldr	r5, [r0, #8]
 800448a:	6862      	ldr	r2, [r4, #4]
 800448c:	f022 02f0 	bic.w	r2, r2, #240	; 0xf0
 8004490:	432a      	orrs	r2, r5
 8004492:	6062      	str	r2, [r4, #4]
 8004494:	07db      	lsls	r3, r3, #31
 8004496:	4604      	mov	r4, r0
 8004498:	460d      	mov	r5, r1
 800449a:	d520      	bpl.n	80044de <HAL_RCC_ClockConfig+0xa6>
 800449c:	6842      	ldr	r2, [r0, #4]
 800449e:	4b45      	ldr	r3, [pc, #276]	; (80045b4 <HAL_RCC_ClockConfig+0x17c>)
 80044a0:	2a01      	cmp	r2, #1
 80044a2:	681b      	ldr	r3, [r3, #0]
 80044a4:	d06f      	beq.n	8004586 <HAL_RCC_ClockConfig+0x14e>
 80044a6:	2a02      	cmp	r2, #2
 80044a8:	d07e      	beq.n	80045a8 <HAL_RCC_ClockConfig+0x170>
 80044aa:	0798      	lsls	r0, r3, #30
 80044ac:	d527      	bpl.n	80044fe <HAL_RCC_ClockConfig+0xc6>
 80044ae:	4e41      	ldr	r6, [pc, #260]	; (80045b4 <HAL_RCC_ClockConfig+0x17c>)
 80044b0:	f241 3888 	movw	r8, #5000	; 0x1388
 80044b4:	6873      	ldr	r3, [r6, #4]
 80044b6:	f023 0303 	bic.w	r3, r3, #3
 80044ba:	4313      	orrs	r3, r2
 80044bc:	6073      	str	r3, [r6, #4]
 80044be:	f7fe f84d 	bl	800255c <HAL_GetTick>
 80044c2:	4607      	mov	r7, r0
 80044c4:	e004      	b.n	80044d0 <HAL_RCC_ClockConfig+0x98>
 80044c6:	f7fe f849 	bl	800255c <HAL_GetTick>
 80044ca:	1bc0      	subs	r0, r0, r7
 80044cc:	4540      	cmp	r0, r8
 80044ce:	d869      	bhi.n	80045a4 <HAL_RCC_ClockConfig+0x16c>
 80044d0:	6873      	ldr	r3, [r6, #4]
 80044d2:	6862      	ldr	r2, [r4, #4]
 80044d4:	f003 030c 	and.w	r3, r3, #12
 80044d8:	ebb3 0f82 	cmp.w	r3, r2, lsl #2
 80044dc:	d1f3      	bne.n	80044c6 <HAL_RCC_ClockConfig+0x8e>
 80044de:	4a34      	ldr	r2, [pc, #208]	; (80045b0 <HAL_RCC_ClockConfig+0x178>)
 80044e0:	6813      	ldr	r3, [r2, #0]
 80044e2:	f003 0307 	and.w	r3, r3, #7
 80044e6:	42ab      	cmp	r3, r5
 80044e8:	d90d      	bls.n	8004506 <HAL_RCC_ClockConfig+0xce>
 80044ea:	6813      	ldr	r3, [r2, #0]
 80044ec:	f023 0307 	bic.w	r3, r3, #7
 80044f0:	432b      	orrs	r3, r5
 80044f2:	6013      	str	r3, [r2, #0]
 80044f4:	6813      	ldr	r3, [r2, #0]
 80044f6:	f003 0307 	and.w	r3, r3, #7
 80044fa:	42ab      	cmp	r3, r5
 80044fc:	d003      	beq.n	8004506 <HAL_RCC_ClockConfig+0xce>
 80044fe:	2001      	movs	r0, #1
 8004500:	b006      	add	sp, #24
 8004502:	e8bd 81f0 	ldmia.w	sp!, {r4, r5, r6, r7, r8, pc}
 8004506:	6823      	ldr	r3, [r4, #0]
 8004508:	0759      	lsls	r1, r3, #29
 800450a:	d506      	bpl.n	800451a <HAL_RCC_ClockConfig+0xe2>
 800450c:	4929      	ldr	r1, [pc, #164]	; (80045b4 <HAL_RCC_ClockConfig+0x17c>)
 800450e:	68e0      	ldr	r0, [r4, #12]
 8004510:	684a      	ldr	r2, [r1, #4]
 8004512:	f422 62e0 	bic.w	r2, r2, #1792	; 0x700
 8004516:	4302      	orrs	r2, r0
 8004518:	604a      	str	r2, [r1, #4]
 800451a:	071a      	lsls	r2, r3, #28
 800451c:	d507      	bpl.n	800452e <HAL_RCC_ClockConfig+0xf6>
 800451e:	4a25      	ldr	r2, [pc, #148]	; (80045b4 <HAL_RCC_ClockConfig+0x17c>)
 8004520:	6921      	ldr	r1, [r4, #16]
 8004522:	6853      	ldr	r3, [r2, #4]
 8004524:	f423 5360 	bic.w	r3, r3, #14336	; 0x3800
 8004528:	ea43 03c1 	orr.w	r3, r3, r1, lsl #3
 800452c:	6053      	str	r3, [r2, #4]
 800452e:	f240 2201 	movw	r2, #513	; 0x201
 8004532:	4b21      	ldr	r3, [pc, #132]	; (80045b8 <HAL_RCC_ClockConfig+0x180>)
 8004534:	ac06      	add	r4, sp, #24
 8004536:	f8ad 2004 	strh.w	r2, [sp, #4]
 800453a:	cb0f      	ldmia	r3, {r0, r1, r2, r3}
 800453c:	e904 000f 	stmdb	r4, {r0, r1, r2, r3}
 8004540:	491c      	ldr	r1, [pc, #112]	; (80045b4 <HAL_RCC_ClockConfig+0x17c>)
 8004542:	684a      	ldr	r2, [r1, #4]
 8004544:	f002 030c 	and.w	r3, r2, #12
 8004548:	2b08      	cmp	r3, #8
 800454a:	d11a      	bne.n	8004582 <HAL_RCC_ClockConfig+0x14a>
 800454c:	f3c2 4383 	ubfx	r3, r2, #18, #4
 8004550:	4423      	add	r3, r4
 8004552:	f813 0c10 	ldrb.w	r0, [r3, #-16]
 8004556:	03d3      	lsls	r3, r2, #15
 8004558:	d418      	bmi.n	800458c <HAL_RCC_ClockConfig+0x154>
 800455a:	4b18      	ldr	r3, [pc, #96]	; (80045bc <HAL_RCC_ClockConfig+0x184>)
 800455c:	fb03 f300 	mul.w	r3, r3, r0
 8004560:	4a14      	ldr	r2, [pc, #80]	; (80045b4 <HAL_RCC_ClockConfig+0x17c>)
 8004562:	4817      	ldr	r0, [pc, #92]	; (80045c0 <HAL_RCC_ClockConfig+0x188>)
 8004564:	6852      	ldr	r2, [r2, #4]
 8004566:	4917      	ldr	r1, [pc, #92]	; (80045c4 <HAL_RCC_ClockConfig+0x18c>)
 8004568:	f3c2 1203 	ubfx	r2, r2, #4, #4
 800456c:	5c80      	ldrb	r0, [r0, r2]
 800456e:	4a16      	ldr	r2, [pc, #88]	; (80045c8 <HAL_RCC_ClockConfig+0x190>)
 8004570:	40c3      	lsrs	r3, r0
 8004572:	6808      	ldr	r0, [r1, #0]
 8004574:	6013      	str	r3, [r2, #0]
 8004576:	f7fd ffaf 	bl	80024d8 <HAL_InitTick>
 800457a:	2000      	movs	r0, #0
 800457c:	b006      	add	sp, #24
 800457e:	e8bd 81f0 	ldmia.w	sp!, {r4, r5, r6, r7, r8, pc}
 8004582:	4b12      	ldr	r3, [pc, #72]	; (80045cc <HAL_RCC_ClockConfig+0x194>)
 8004584:	e7ec      	b.n	8004560 <HAL_RCC_ClockConfig+0x128>
 8004586:	039f      	lsls	r7, r3, #14
 8004588:	d491      	bmi.n	80044ae <HAL_RCC_ClockConfig+0x76>
 800458a:	e7b8      	b.n	80044fe <HAL_RCC_ClockConfig+0xc6>
 800458c:	684a      	ldr	r2, [r1, #4]
 800458e:	4b0f      	ldr	r3, [pc, #60]	; (80045cc <HAL_RCC_ClockConfig+0x194>)
 8004590:	f3c2 4240 	ubfx	r2, r2, #17, #1
 8004594:	fb03 f300 	mul.w	r3, r3, r0
 8004598:	4422      	add	r2, r4
 800459a:	f812 2c14 	ldrb.w	r2, [r2, #-20]
 800459e:	fbb3 f3f2 	udiv	r3, r3, r2
 80045a2:	e7dd      	b.n	8004560 <HAL_RCC_ClockConfig+0x128>
 80045a4:	2003      	movs	r0, #3
 80045a6:	e7ab      	b.n	8004500 <HAL_RCC_ClockConfig+0xc8>
 80045a8:	019e      	lsls	r6, r3, #6
 80045aa:	d480      	bmi.n	80044ae <HAL_RCC_ClockConfig+0x76>
 80045ac:	e7a7      	b.n	80044fe <HAL_RCC_ClockConfig+0xc6>
 80045ae:	bf00      	nop
 80045b0:	40022000 	.word	0x40022000
 80045b4:	40021000 	.word	0x40021000
 80045b8:	08005008 	.word	0x08005008
 80045bc:	003d0900 	.word	0x003d0900
 80045c0:	080052f0 	.word	0x080052f0
 80045c4:	20000014 	.word	0x20000014
 80045c8:	2000000c 	.word	0x2000000c
 80045cc:	007a1200 	.word	0x007a1200

080045d0 <HAL_RCC_GetPCLK1Freq>:
 80045d0:	4b04      	ldr	r3, [pc, #16]	; (80045e4 <HAL_RCC_GetPCLK1Freq+0x14>)
 80045d2:	4905      	ldr	r1, [pc, #20]	; (80045e8 <HAL_RCC_GetPCLK1Freq+0x18>)
 80045d4:	685b      	ldr	r3, [r3, #4]
 80045d6:	4a05      	ldr	r2, [pc, #20]	; (80045ec <HAL_RCC_GetPCLK1Freq+0x1c>)
 80045d8:	f3c3 2302 	ubfx	r3, r3, #8, #3
 80045dc:	5ccb      	ldrb	r3, [r1, r3]
 80045de:	6810      	ldr	r0, [r2, #0]
 80045e0:	40d8      	lsrs	r0, r3
 80045e2:	4770      	bx	lr
 80045e4:	40021000 	.word	0x40021000
 80045e8:	08005300 	.word	0x08005300
 80045ec:	2000000c 	.word	0x2000000c

080045f0 <HAL_SPI_Init>:
 80045f0:	2800      	cmp	r0, #0
 80045f2:	d03b      	beq.n	800466c <HAL_SPI_Init+0x7c>
 80045f4:	b5f8      	push	{r3, r4, r5, r6, r7, lr}
 80045f6:	2300      	movs	r3, #0
 80045f8:	f890 1051 	ldrb.w	r1, [r0, #81]	; 0x51
 80045fc:	4604      	mov	r4, r0
 80045fe:	6283      	str	r3, [r0, #40]	; 0x28
 8004600:	f001 02ff 	and.w	r2, r1, #255	; 0xff
 8004604:	b361      	cbz	r1, 8004660 <HAL_SPI_Init+0x70>
 8004606:	461a      	mov	r2, r3
 8004608:	e9d4 3601 	ldrd	r3, r6, [r4, #4]
 800460c:	2702      	movs	r7, #2
 800460e:	2100      	movs	r1, #0
 8004610:	2501      	movs	r5, #1
 8004612:	68e0      	ldr	r0, [r4, #12]
 8004614:	4333      	orrs	r3, r6
 8004616:	6926      	ldr	r6, [r4, #16]
 8004618:	4303      	orrs	r3, r0
 800461a:	6960      	ldr	r0, [r4, #20]
 800461c:	4333      	orrs	r3, r6
 800461e:	69e6      	ldr	r6, [r4, #28]
 8004620:	f8d4 c018 	ldr.w	ip, [r4, #24]
 8004624:	4303      	orrs	r3, r0
 8004626:	6a20      	ldr	r0, [r4, #32]
 8004628:	4333      	orrs	r3, r6
 800462a:	6826      	ldr	r6, [r4, #0]
 800462c:	f884 7051 	strb.w	r7, [r4, #81]	; 0x51
 8004630:	4303      	orrs	r3, r0
 8004632:	f40c 7000 	and.w	r0, ip, #512	; 0x200
 8004636:	4303      	orrs	r3, r0
 8004638:	6830      	ldr	r0, [r6, #0]
 800463a:	ea4f 4c1c 	mov.w	ip, ip, lsr #16
 800463e:	4313      	orrs	r3, r2
 8004640:	f020 0040 	bic.w	r0, r0, #64	; 0x40
 8004644:	f00c 0204 	and.w	r2, ip, #4
 8004648:	6030      	str	r0, [r6, #0]
 800464a:	6033      	str	r3, [r6, #0]
 800464c:	6072      	str	r2, [r6, #4]
 800464e:	69f3      	ldr	r3, [r6, #28]
 8004650:	4608      	mov	r0, r1
 8004652:	f423 6300 	bic.w	r3, r3, #2048	; 0x800
 8004656:	61f3      	str	r3, [r6, #28]
 8004658:	6561      	str	r1, [r4, #84]	; 0x54
 800465a:	f884 5051 	strb.w	r5, [r4, #81]	; 0x51
 800465e:	bdf8      	pop	{r3, r4, r5, r6, r7, pc}
 8004660:	f880 2050 	strb.w	r2, [r0, #80]	; 0x50
 8004664:	f7fd fe2c 	bl	80022c0 <HAL_SPI_MspInit>
 8004668:	6aa2      	ldr	r2, [r4, #40]	; 0x28
 800466a:	e7cd      	b.n	8004608 <HAL_SPI_Init+0x18>
 800466c:	2001      	movs	r0, #1
 800466e:	4770      	bx	lr

08004670 <HAL_SPI_Transmit>:
 8004670:	e92d 41f0 	stmdb	sp!, {r4, r5, r6, r7, r8, lr}
 8004674:	f890 4050 	ldrb.w	r4, [r0, #80]	; 0x50
 8004678:	b082      	sub	sp, #8
 800467a:	2c01      	cmp	r4, #1
 800467c:	d05e      	beq.n	800473c <HAL_SPI_Transmit+0xcc>
 800467e:	461f      	mov	r7, r3
 8004680:	2301      	movs	r3, #1
 8004682:	f880 3050 	strb.w	r3, [r0, #80]	; 0x50
 8004686:	4604      	mov	r4, r0
 8004688:	4616      	mov	r6, r2
 800468a:	460d      	mov	r5, r1
 800468c:	f7fd ff66 	bl	800255c <HAL_GetTick>
 8004690:	4680      	mov	r8, r0
 8004692:	f894 0051 	ldrb.w	r0, [r4, #81]	; 0x51
 8004696:	b2c0      	uxtb	r0, r0
 8004698:	2801      	cmp	r0, #1
 800469a:	d009      	beq.n	80046b0 <HAL_SPI_Transmit+0x40>
 800469c:	2002      	movs	r0, #2
 800469e:	2201      	movs	r2, #1
 80046a0:	2300      	movs	r3, #0
 80046a2:	f884 2051 	strb.w	r2, [r4, #81]	; 0x51
 80046a6:	f884 3050 	strb.w	r3, [r4, #80]	; 0x50
 80046aa:	b002      	add	sp, #8
 80046ac:	e8bd 81f0 	ldmia.w	sp!, {r4, r5, r6, r7, r8, pc}
 80046b0:	2d00      	cmp	r5, #0
 80046b2:	d0f4      	beq.n	800469e <HAL_SPI_Transmit+0x2e>
 80046b4:	2e00      	cmp	r6, #0
 80046b6:	d0f2      	beq.n	800469e <HAL_SPI_Transmit+0x2e>
 80046b8:	2300      	movs	r3, #0
 80046ba:	2103      	movs	r1, #3
 80046bc:	68a2      	ldr	r2, [r4, #8]
 80046be:	f884 1051 	strb.w	r1, [r4, #81]	; 0x51
 80046c2:	f5b2 4f00 	cmp.w	r2, #32768	; 0x8000
 80046c6:	6563      	str	r3, [r4, #84]	; 0x54
 80046c8:	6325      	str	r5, [r4, #48]	; 0x30
 80046ca:	86e6      	strh	r6, [r4, #54]	; 0x36
 80046cc:	86a6      	strh	r6, [r4, #52]	; 0x34
 80046ce:	63a3      	str	r3, [r4, #56]	; 0x38
 80046d0:	87a3      	strh	r3, [r4, #60]	; 0x3c
 80046d2:	e9c4 3310 	strd	r3, r3, [r4, #64]	; 0x40
 80046d6:	87e3      	strh	r3, [r4, #62]	; 0x3e
 80046d8:	6820      	ldr	r0, [r4, #0]
 80046da:	d103      	bne.n	80046e4 <HAL_SPI_Transmit+0x74>
 80046dc:	6803      	ldr	r3, [r0, #0]
 80046de:	f443 4380 	orr.w	r3, r3, #16384	; 0x4000
 80046e2:	6003      	str	r3, [r0, #0]
 80046e4:	6803      	ldr	r3, [r0, #0]
 80046e6:	065b      	lsls	r3, r3, #25
 80046e8:	d52c      	bpl.n	8004744 <HAL_SPI_Transmit+0xd4>
 80046ea:	68e3      	ldr	r3, [r4, #12]
 80046ec:	6862      	ldr	r2, [r4, #4]
 80046ee:	f5b3 6f00 	cmp.w	r3, #2048	; 0x800
 80046f2:	d045      	beq.n	8004780 <HAL_SPI_Transmit+0x110>
 80046f4:	2a00      	cmp	r2, #0
 80046f6:	d16e      	bne.n	80047d6 <HAL_SPI_Transmit+0x166>
 80046f8:	782b      	ldrb	r3, [r5, #0]
 80046fa:	7303      	strb	r3, [r0, #12]
 80046fc:	8ee3      	ldrh	r3, [r4, #54]	; 0x36
 80046fe:	6b22      	ldr	r2, [r4, #48]	; 0x30
 8004700:	3b01      	subs	r3, #1
 8004702:	b29b      	uxth	r3, r3
 8004704:	3201      	adds	r2, #1
 8004706:	6820      	ldr	r0, [r4, #0]
 8004708:	86e3      	strh	r3, [r4, #54]	; 0x36
 800470a:	6322      	str	r2, [r4, #48]	; 0x30
 800470c:	1c7e      	adds	r6, r7, #1
 800470e:	d00b      	beq.n	8004728 <HAL_SPI_Transmit+0xb8>
 8004710:	e028      	b.n	8004764 <HAL_SPI_Transmit+0xf4>
 8004712:	6b23      	ldr	r3, [r4, #48]	; 0x30
 8004714:	781b      	ldrb	r3, [r3, #0]
 8004716:	7303      	strb	r3, [r0, #12]
 8004718:	8ee3      	ldrh	r3, [r4, #54]	; 0x36
 800471a:	6b22      	ldr	r2, [r4, #48]	; 0x30
 800471c:	3b01      	subs	r3, #1
 800471e:	b29b      	uxth	r3, r3
 8004720:	3201      	adds	r2, #1
 8004722:	86e3      	strh	r3, [r4, #54]	; 0x36
 8004724:	6322      	str	r2, [r4, #48]	; 0x30
 8004726:	6820      	ldr	r0, [r4, #0]
 8004728:	8ee3      	ldrh	r3, [r4, #54]	; 0x36
 800472a:	b29b      	uxth	r3, r3
 800472c:	2b00      	cmp	r3, #0
 800472e:	d040      	beq.n	80047b2 <HAL_SPI_Transmit+0x142>
 8004730:	6883      	ldr	r3, [r0, #8]
 8004732:	079d      	lsls	r5, r3, #30
 8004734:	d4ed      	bmi.n	8004712 <HAL_SPI_Transmit+0xa2>
 8004736:	f7fd ff11 	bl	800255c <HAL_GetTick>
 800473a:	e7f4      	b.n	8004726 <HAL_SPI_Transmit+0xb6>
 800473c:	2002      	movs	r0, #2
 800473e:	b002      	add	sp, #8
 8004740:	e8bd 81f0 	ldmia.w	sp!, {r4, r5, r6, r7, r8, pc}
 8004744:	6803      	ldr	r3, [r0, #0]
 8004746:	f043 0340 	orr.w	r3, r3, #64	; 0x40
 800474a:	6003      	str	r3, [r0, #0]
 800474c:	e7cd      	b.n	80046ea <HAL_SPI_Transmit+0x7a>
 800474e:	6b23      	ldr	r3, [r4, #48]	; 0x30
 8004750:	781b      	ldrb	r3, [r3, #0]
 8004752:	7303      	strb	r3, [r0, #12]
 8004754:	8ee3      	ldrh	r3, [r4, #54]	; 0x36
 8004756:	6b22      	ldr	r2, [r4, #48]	; 0x30
 8004758:	3b01      	subs	r3, #1
 800475a:	b29b      	uxth	r3, r3
 800475c:	3201      	adds	r2, #1
 800475e:	86e3      	strh	r3, [r4, #54]	; 0x36
 8004760:	6322      	str	r2, [r4, #48]	; 0x30
 8004762:	6820      	ldr	r0, [r4, #0]
 8004764:	8ee3      	ldrh	r3, [r4, #54]	; 0x36
 8004766:	b29b      	uxth	r3, r3
 8004768:	b31b      	cbz	r3, 80047b2 <HAL_SPI_Transmit+0x142>
 800476a:	6883      	ldr	r3, [r0, #8]
 800476c:	079b      	lsls	r3, r3, #30
 800476e:	d4ee      	bmi.n	800474e <HAL_SPI_Transmit+0xde>
 8004770:	f7fd fef4 	bl	800255c <HAL_GetTick>
 8004774:	eba0 0008 	sub.w	r0, r0, r8
 8004778:	42b8      	cmp	r0, r7
 800477a:	d3f2      	bcc.n	8004762 <HAL_SPI_Transmit+0xf2>
 800477c:	2003      	movs	r0, #3
 800477e:	e78e      	b.n	800469e <HAL_SPI_Transmit+0x2e>
 8004780:	2a00      	cmp	r2, #0
 8004782:	d076      	beq.n	8004872 <HAL_SPI_Transmit+0x202>
 8004784:	2e01      	cmp	r6, #1
 8004786:	d074      	beq.n	8004872 <HAL_SPI_Transmit+0x202>
 8004788:	1c79      	adds	r1, r7, #1
 800478a:	d159      	bne.n	8004840 <HAL_SPI_Transmit+0x1d0>
 800478c:	8ee3      	ldrh	r3, [r4, #54]	; 0x36
 800478e:	b29b      	uxth	r3, r3
 8004790:	b17b      	cbz	r3, 80047b2 <HAL_SPI_Transmit+0x142>
 8004792:	6883      	ldr	r3, [r0, #8]
 8004794:	079a      	lsls	r2, r3, #30
 8004796:	d568      	bpl.n	800486a <HAL_SPI_Transmit+0x1fa>
 8004798:	6b22      	ldr	r2, [r4, #48]	; 0x30
 800479a:	f832 3b02 	ldrh.w	r3, [r2], #2
 800479e:	60c3      	str	r3, [r0, #12]
 80047a0:	8ee3      	ldrh	r3, [r4, #54]	; 0x36
 80047a2:	6322      	str	r2, [r4, #48]	; 0x30
 80047a4:	3b01      	subs	r3, #1
 80047a6:	b29b      	uxth	r3, r3
 80047a8:	86e3      	strh	r3, [r4, #54]	; 0x36
 80047aa:	8ee3      	ldrh	r3, [r4, #54]	; 0x36
 80047ac:	b29b      	uxth	r3, r3
 80047ae:	2b00      	cmp	r3, #0
 80047b0:	d1ef      	bne.n	8004792 <HAL_SPI_Transmit+0x122>
 80047b2:	1c79      	adds	r1, r7, #1
 80047b4:	d112      	bne.n	80047dc <HAL_SPI_Transmit+0x16c>
 80047b6:	6883      	ldr	r3, [r0, #8]
 80047b8:	061a      	lsls	r2, r3, #24
 80047ba:	d4fc      	bmi.n	80047b6 <HAL_SPI_Transmit+0x146>
 80047bc:	68a3      	ldr	r3, [r4, #8]
 80047be:	b92b      	cbnz	r3, 80047cc <HAL_SPI_Transmit+0x15c>
 80047c0:	9301      	str	r3, [sp, #4]
 80047c2:	68c3      	ldr	r3, [r0, #12]
 80047c4:	9301      	str	r3, [sp, #4]
 80047c6:	6883      	ldr	r3, [r0, #8]
 80047c8:	9301      	str	r3, [sp, #4]
 80047ca:	9b01      	ldr	r3, [sp, #4]
 80047cc:	6d60      	ldr	r0, [r4, #84]	; 0x54
 80047ce:	3000      	adds	r0, #0
 80047d0:	bf18      	it	ne
 80047d2:	2001      	movne	r0, #1
 80047d4:	e763      	b.n	800469e <HAL_SPI_Transmit+0x2e>
 80047d6:	2e01      	cmp	r6, #1
 80047d8:	d198      	bne.n	800470c <HAL_SPI_Transmit+0x9c>
 80047da:	e78d      	b.n	80046f8 <HAL_SPI_Transmit+0x88>
 80047dc:	6883      	ldr	r3, [r0, #8]
 80047de:	061b      	lsls	r3, r3, #24
 80047e0:	d5ec      	bpl.n	80047bc <HAL_SPI_Transmit+0x14c>
 80047e2:	f7fd febb 	bl	800255c <HAL_GetTick>
 80047e6:	eba0 0008 	sub.w	r0, r0, r8
 80047ea:	4287      	cmp	r7, r0
 80047ec:	6820      	ldr	r0, [r4, #0]
 80047ee:	d8e0      	bhi.n	80047b2 <HAL_SPI_Transmit+0x142>
 80047f0:	6861      	ldr	r1, [r4, #4]
 80047f2:	6842      	ldr	r2, [r0, #4]
 80047f4:	f5b1 7f82 	cmp.w	r1, #260	; 0x104
 80047f8:	f022 02e0 	bic.w	r2, r2, #224	; 0xe0
 80047fc:	68a3      	ldr	r3, [r4, #8]
 80047fe:	6042      	str	r2, [r0, #4]
 8004800:	d040      	beq.n	8004884 <HAL_SPI_Transmit+0x214>
 8004802:	6aa2      	ldr	r2, [r4, #40]	; 0x28
 8004804:	f5b2 5f00 	cmp.w	r2, #8192	; 0x2000
 8004808:	d107      	bne.n	800481a <HAL_SPI_Transmit+0x1aa>
 800480a:	6802      	ldr	r2, [r0, #0]
 800480c:	f422 5200 	bic.w	r2, r2, #8192	; 0x2000
 8004810:	6002      	str	r2, [r0, #0]
 8004812:	6802      	ldr	r2, [r0, #0]
 8004814:	f442 5200 	orr.w	r2, r2, #8192	; 0x2000
 8004818:	6002      	str	r2, [r0, #0]
 800481a:	2201      	movs	r2, #1
 800481c:	2120      	movs	r1, #32
 800481e:	2500      	movs	r5, #0
 8004820:	f884 2051 	strb.w	r2, [r4, #81]	; 0x51
 8004824:	6d62      	ldr	r2, [r4, #84]	; 0x54
 8004826:	f884 5050 	strb.w	r5, [r4, #80]	; 0x50
 800482a:	430a      	orrs	r2, r1
 800482c:	6562      	str	r2, [r4, #84]	; 0x54
 800482e:	6561      	str	r1, [r4, #84]	; 0x54
 8004830:	e7c5      	b.n	80047be <HAL_SPI_Transmit+0x14e>
 8004832:	f7fd fe93 	bl	800255c <HAL_GetTick>
 8004836:	eba0 0008 	sub.w	r0, r0, r8
 800483a:	42b8      	cmp	r0, r7
 800483c:	d29e      	bcs.n	800477c <HAL_SPI_Transmit+0x10c>
 800483e:	6820      	ldr	r0, [r4, #0]
 8004840:	8ee3      	ldrh	r3, [r4, #54]	; 0x36
 8004842:	b29b      	uxth	r3, r3
 8004844:	2b00      	cmp	r3, #0
 8004846:	d0b4      	beq.n	80047b2 <HAL_SPI_Transmit+0x142>
 8004848:	6883      	ldr	r3, [r0, #8]
 800484a:	079d      	lsls	r5, r3, #30
 800484c:	d5f1      	bpl.n	8004832 <HAL_SPI_Transmit+0x1c2>
 800484e:	6b22      	ldr	r2, [r4, #48]	; 0x30
 8004850:	f832 3b02 	ldrh.w	r3, [r2], #2
 8004854:	60c3      	str	r3, [r0, #12]
 8004856:	8ee3      	ldrh	r3, [r4, #54]	; 0x36
 8004858:	6322      	str	r2, [r4, #48]	; 0x30
 800485a:	3b01      	subs	r3, #1
 800485c:	b29b      	uxth	r3, r3
 800485e:	86e3      	strh	r3, [r4, #54]	; 0x36
 8004860:	8ee3      	ldrh	r3, [r4, #54]	; 0x36
 8004862:	b29b      	uxth	r3, r3
 8004864:	2b00      	cmp	r3, #0
 8004866:	d1ef      	bne.n	8004848 <HAL_SPI_Transmit+0x1d8>
 8004868:	e7a3      	b.n	80047b2 <HAL_SPI_Transmit+0x142>
 800486a:	f7fd fe77 	bl	800255c <HAL_GetTick>
 800486e:	6820      	ldr	r0, [r4, #0]
 8004870:	e78c      	b.n	800478c <HAL_SPI_Transmit+0x11c>
 8004872:	f835 3b02 	ldrh.w	r3, [r5], #2
 8004876:	60c3      	str	r3, [r0, #12]
 8004878:	8ee3      	ldrh	r3, [r4, #54]	; 0x36
 800487a:	6325      	str	r5, [r4, #48]	; 0x30
 800487c:	3b01      	subs	r3, #1
 800487e:	b29b      	uxth	r3, r3
 8004880:	86e3      	strh	r3, [r4, #54]	; 0x36
 8004882:	e781      	b.n	8004788 <HAL_SPI_Transmit+0x118>
 8004884:	f5b3 4f00 	cmp.w	r3, #32768	; 0x8000
 8004888:	d002      	beq.n	8004890 <HAL_SPI_Transmit+0x220>
 800488a:	f5b3 6f80 	cmp.w	r3, #1024	; 0x400
 800488e:	d1b8      	bne.n	8004802 <HAL_SPI_Transmit+0x192>
 8004890:	6802      	ldr	r2, [r0, #0]
 8004892:	f022 0240 	bic.w	r2, r2, #64	; 0x40
 8004896:	6002      	str	r2, [r0, #0]
 8004898:	e7b3      	b.n	8004802 <HAL_SPI_Transmit+0x192>
 800489a:	bf00      	nop

0800489c <HAL_TIM_Base_Init>:
 800489c:	2800      	cmp	r0, #0
 800489e:	d036      	beq.n	800490e <HAL_TIM_Base_Init+0x72>
 80048a0:	f890 303d 	ldrb.w	r3, [r0, #61]	; 0x3d
 80048a4:	b570      	push	{r4, r5, r6, lr}
 80048a6:	f003 02ff 	and.w	r2, r3, #255	; 0xff
 80048aa:	4604      	mov	r4, r0
 80048ac:	b30b      	cbz	r3, 80048f2 <HAL_TIM_Base_Init+0x56>
 80048ae:	2302      	movs	r3, #2
 80048b0:	6822      	ldr	r2, [r4, #0]
 80048b2:	4e20      	ldr	r6, [pc, #128]	; (8004934 <HAL_TIM_Base_Init+0x98>)
 80048b4:	f884 303d 	strb.w	r3, [r4, #61]	; 0x3d
 80048b8:	42b2      	cmp	r2, r6
 80048ba:	6813      	ldr	r3, [r2, #0]
 80048bc:	69a5      	ldr	r5, [r4, #24]
 80048be:	68e0      	ldr	r0, [r4, #12]
 80048c0:	6861      	ldr	r1, [r4, #4]
 80048c2:	d026      	beq.n	8004912 <HAL_TIM_Base_Init+0x76>
 80048c4:	f1b2 4f80 	cmp.w	r2, #1073741824	; 0x40000000
 80048c8:	d018      	beq.n	80048fc <HAL_TIM_Base_Init+0x60>
 80048ca:	f5a6 3694 	sub.w	r6, r6, #75776	; 0x12800
 80048ce:	42b2      	cmp	r2, r6
 80048d0:	d014      	beq.n	80048fc <HAL_TIM_Base_Init+0x60>
 80048d2:	f506 6680 	add.w	r6, r6, #1024	; 0x400
 80048d6:	42b2      	cmp	r2, r6
 80048d8:	d010      	beq.n	80048fc <HAL_TIM_Base_Init+0x60>
 80048da:	f023 0380 	bic.w	r3, r3, #128	; 0x80
 80048de:	432b      	orrs	r3, r5
 80048e0:	6013      	str	r3, [r2, #0]
 80048e2:	62d0      	str	r0, [r2, #44]	; 0x2c
 80048e4:	6291      	str	r1, [r2, #40]	; 0x28
 80048e6:	2301      	movs	r3, #1
 80048e8:	2000      	movs	r0, #0
 80048ea:	6153      	str	r3, [r2, #20]
 80048ec:	f884 303d 	strb.w	r3, [r4, #61]	; 0x3d
 80048f0:	bd70      	pop	{r4, r5, r6, pc}
 80048f2:	f880 203c 	strb.w	r2, [r0, #60]	; 0x3c
 80048f6:	f7fd fd1f 	bl	8002338 <HAL_TIM_Base_MspInit>
 80048fa:	e7d8      	b.n	80048ae <HAL_TIM_Base_Init+0x12>
 80048fc:	68a6      	ldr	r6, [r4, #8]
 80048fe:	f023 0370 	bic.w	r3, r3, #112	; 0x70
 8004902:	4333      	orrs	r3, r6
 8004904:	6926      	ldr	r6, [r4, #16]
 8004906:	f423 7340 	bic.w	r3, r3, #768	; 0x300
 800490a:	4333      	orrs	r3, r6
 800490c:	e7e5      	b.n	80048da <HAL_TIM_Base_Init+0x3e>
 800490e:	2001      	movs	r0, #1
 8004910:	4770      	bx	lr
 8004912:	68a6      	ldr	r6, [r4, #8]
 8004914:	f023 0370 	bic.w	r3, r3, #112	; 0x70
 8004918:	4333      	orrs	r3, r6
 800491a:	6926      	ldr	r6, [r4, #16]
 800491c:	f423 7340 	bic.w	r3, r3, #768	; 0x300
 8004920:	4333      	orrs	r3, r6
 8004922:	f023 0380 	bic.w	r3, r3, #128	; 0x80
 8004926:	432b      	orrs	r3, r5
 8004928:	6013      	str	r3, [r2, #0]
 800492a:	62d0      	str	r0, [r2, #44]	; 0x2c
 800492c:	6291      	str	r1, [r2, #40]	; 0x28
 800492e:	6963      	ldr	r3, [r4, #20]
 8004930:	6313      	str	r3, [r2, #48]	; 0x30
 8004932:	e7d8      	b.n	80048e6 <HAL_TIM_Base_Init+0x4a>
 8004934:	40012c00 	.word	0x40012c00

08004938 <HAL_TIM_Base_Start_IT>:
 8004938:	6803      	ldr	r3, [r0, #0]
 800493a:	68da      	ldr	r2, [r3, #12]
 800493c:	f042 0201 	orr.w	r2, r2, #1
 8004940:	60da      	str	r2, [r3, #12]
 8004942:	689a      	ldr	r2, [r3, #8]
 8004944:	f002 0207 	and.w	r2, r2, #7
 8004948:	2a06      	cmp	r2, #6
 800494a:	d003      	beq.n	8004954 <HAL_TIM_Base_Start_IT+0x1c>
 800494c:	681a      	ldr	r2, [r3, #0]
 800494e:	f042 0201 	orr.w	r2, r2, #1
 8004952:	601a      	str	r2, [r3, #0]
 8004954:	2000      	movs	r0, #0
 8004956:	4770      	bx	lr

08004958 <HAL_TIM_PWM_MspInit>:
 8004958:	4770      	bx	lr
 800495a:	bf00      	nop

0800495c <HAL_TIM_PWM_Init>:
 800495c:	2800      	cmp	r0, #0
 800495e:	d036      	beq.n	80049ce <HAL_TIM_PWM_Init+0x72>
 8004960:	f890 303d 	ldrb.w	r3, [r0, #61]	; 0x3d
 8004964:	b570      	push	{r4, r5, r6, lr}
 8004966:	f003 02ff 	and.w	r2, r3, #255	; 0xff
 800496a:	4604      	mov	r4, r0
 800496c:	b30b      	cbz	r3, 80049b2 <HAL_TIM_PWM_Init+0x56>
 800496e:	2302      	movs	r3, #2
 8004970:	6822      	ldr	r2, [r4, #0]
 8004972:	4e20      	ldr	r6, [pc, #128]	; (80049f4 <HAL_TIM_PWM_Init+0x98>)
 8004974:	f884 303d 	strb.w	r3, [r4, #61]	; 0x3d
 8004978:	42b2      	cmp	r2, r6
 800497a:	6813      	ldr	r3, [r2, #0]
 800497c:	69a5      	ldr	r5, [r4, #24]
 800497e:	68e0      	ldr	r0, [r4, #12]
 8004980:	6861      	ldr	r1, [r4, #4]
 8004982:	d026      	beq.n	80049d2 <HAL_TIM_PWM_Init+0x76>
 8004984:	f1b2 4f80 	cmp.w	r2, #1073741824	; 0x40000000
 8004988:	d018      	beq.n	80049bc <HAL_TIM_PWM_Init+0x60>
 800498a:	f5a6 3694 	sub.w	r6, r6, #75776	; 0x12800
 800498e:	42b2      	cmp	r2, r6
 8004990:	d014      	beq.n	80049bc <HAL_TIM_PWM_Init+0x60>
 8004992:	f506 6680 	add.w	r6, r6, #1024	; 0x400
 8004996:	42b2      	cmp	r2, r6
 8004998:	d010      	beq.n	80049bc <HAL_TIM_PWM_Init+0x60>
 800499a:	f023 0380 	bic.w	r3, r3, #128	; 0x80
 800499e:	432b      	orrs	r3, r5
 80049a0:	6013      	str	r3, [r2, #0]
 80049a2:	62d0      	str	r0, [r2, #44]	; 0x2c
 80049a4:	6291      	str	r1, [r2, #40]	; 0x28
 80049a6:	2301      	movs	r3, #1
 80049a8:	2000      	movs	r0, #0
 80049aa:	6153      	str	r3, [r2, #20]
 80049ac:	f884 303d 	strb.w	r3, [r4, #61]	; 0x3d
 80049b0:	bd70      	pop	{r4, r5, r6, pc}
 80049b2:	f880 203c 	strb.w	r2, [r0, #60]	; 0x3c
 80049b6:	f7ff ffcf 	bl	8004958 <HAL_TIM_PWM_MspInit>
 80049ba:	e7d8      	b.n	800496e <HAL_TIM_PWM_Init+0x12>
 80049bc:	68a6      	ldr	r6, [r4, #8]
 80049be:	f023 0370 	bic.w	r3, r3, #112	; 0x70
 80049c2:	4333      	orrs	r3, r6
 80049c4:	6926      	ldr	r6, [r4, #16]
 80049c6:	f423 7340 	bic.w	r3, r3, #768	; 0x300
 80049ca:	4333      	orrs	r3, r6
 80049cc:	e7e5      	b.n	800499a <HAL_TIM_PWM_Init+0x3e>
 80049ce:	2001      	movs	r0, #1
 80049d0:	4770      	bx	lr
 80049d2:	68a6      	ldr	r6, [r4, #8]
 80049d4:	f023 0370 	bic.w	r3, r3, #112	; 0x70
 80049d8:	4333      	orrs	r3, r6
 80049da:	6926      	ldr	r6, [r4, #16]
 80049dc:	f423 7340 	bic.w	r3, r3, #768	; 0x300
 80049e0:	4333      	orrs	r3, r6
 80049e2:	f023 0380 	bic.w	r3, r3, #128	; 0x80
 80049e6:	432b      	orrs	r3, r5
 80049e8:	6013      	str	r3, [r2, #0]
 80049ea:	62d0      	str	r0, [r2, #44]	; 0x2c
 80049ec:	6291      	str	r1, [r2, #40]	; 0x28
 80049ee:	6963      	ldr	r3, [r4, #20]
 80049f0:	6313      	str	r3, [r2, #48]	; 0x30
 80049f2:	e7d8      	b.n	80049a6 <HAL_TIM_PWM_Init+0x4a>
 80049f4:	40012c00 	.word	0x40012c00

080049f8 <HAL_TIM_PWM_Start>:
 80049f8:	2201      	movs	r2, #1
 80049fa:	6803      	ldr	r3, [r0, #0]
 80049fc:	f001 011f 	and.w	r1, r1, #31
 8004a00:	6a18      	ldr	r0, [r3, #32]
 8004a02:	fa02 f101 	lsl.w	r1, r2, r1
 8004a06:	ea20 0001 	bic.w	r0, r0, r1
 8004a0a:	6218      	str	r0, [r3, #32]
 8004a0c:	6a18      	ldr	r0, [r3, #32]
 8004a0e:	4a0a      	ldr	r2, [pc, #40]	; (8004a38 <HAL_TIM_PWM_Start+0x40>)
 8004a10:	4301      	orrs	r1, r0
 8004a12:	4293      	cmp	r3, r2
 8004a14:	6219      	str	r1, [r3, #32]
 8004a16:	d00a      	beq.n	8004a2e <HAL_TIM_PWM_Start+0x36>
 8004a18:	689a      	ldr	r2, [r3, #8]
 8004a1a:	f002 0207 	and.w	r2, r2, #7
 8004a1e:	2a06      	cmp	r2, #6
 8004a20:	d003      	beq.n	8004a2a <HAL_TIM_PWM_Start+0x32>
 8004a22:	681a      	ldr	r2, [r3, #0]
 8004a24:	f042 0201 	orr.w	r2, r2, #1
 8004a28:	601a      	str	r2, [r3, #0]
 8004a2a:	2000      	movs	r0, #0
 8004a2c:	4770      	bx	lr
 8004a2e:	6c5a      	ldr	r2, [r3, #68]	; 0x44
 8004a30:	f442 4200 	orr.w	r2, r2, #32768	; 0x8000
 8004a34:	645a      	str	r2, [r3, #68]	; 0x44
 8004a36:	e7ef      	b.n	8004a18 <HAL_TIM_PWM_Start+0x20>
 8004a38:	40012c00 	.word	0x40012c00

08004a3c <HAL_TIM_PWM_ConfigChannel>:
 8004a3c:	f890 303c 	ldrb.w	r3, [r0, #60]	; 0x3c
 8004a40:	2b01      	cmp	r3, #1
 8004a42:	f000 80c5 	beq.w	8004bd0 <HAL_TIM_PWM_ConfigChannel+0x194>
 8004a46:	b4f0      	push	{r4, r5, r6, r7}
 8004a48:	2302      	movs	r3, #2
 8004a4a:	2401      	movs	r4, #1
 8004a4c:	f880 303d 	strb.w	r3, [r0, #61]	; 0x3d
 8004a50:	f880 403c 	strb.w	r4, [r0, #60]	; 0x3c
 8004a54:	2a0c      	cmp	r2, #12
 8004a56:	d836      	bhi.n	8004ac6 <HAL_TIM_PWM_ConfigChannel+0x8a>
 8004a58:	e8df f002 	tbb	[pc, r2]
 8004a5c:	3535353e 	.word	0x3535353e
 8004a60:	35353567 	.word	0x35353567
 8004a64:	35353591 	.word	0x35353591
 8004a68:	07          	.byte	0x07
 8004a69:	00          	.byte	0x00
 8004a6a:	6803      	ldr	r3, [r0, #0]
 8004a6c:	688f      	ldr	r7, [r1, #8]
 8004a6e:	6a1d      	ldr	r5, [r3, #32]
 8004a70:	680e      	ldr	r6, [r1, #0]
 8004a72:	f425 5580 	bic.w	r5, r5, #4096	; 0x1000
 8004a76:	621d      	str	r5, [r3, #32]
 8004a78:	6a1a      	ldr	r2, [r3, #32]
 8004a7a:	4d6c      	ldr	r5, [pc, #432]	; (8004c2c <HAL_TIM_PWM_ConfigChannel+0x1f0>)
 8004a7c:	f8d3 c004 	ldr.w	ip, [r3, #4]
 8004a80:	69dc      	ldr	r4, [r3, #28]
 8004a82:	f422 5200 	bic.w	r2, r2, #8192	; 0x2000
 8004a86:	f424 44e6 	bic.w	r4, r4, #29440	; 0x7300
 8004a8a:	42ab      	cmp	r3, r5
 8004a8c:	ea42 3207 	orr.w	r2, r2, r7, lsl #12
 8004a90:	ea44 2406 	orr.w	r4, r4, r6, lsl #8
 8004a94:	d104      	bne.n	8004aa0 <HAL_TIM_PWM_ConfigChannel+0x64>
 8004a96:	694d      	ldr	r5, [r1, #20]
 8004a98:	f42c 4c80 	bic.w	ip, ip, #16384	; 0x4000
 8004a9c:	ea4c 1c85 	orr.w	ip, ip, r5, lsl #6
 8004aa0:	684d      	ldr	r5, [r1, #4]
 8004aa2:	f8c3 c004 	str.w	ip, [r3, #4]
 8004aa6:	61dc      	str	r4, [r3, #28]
 8004aa8:	641d      	str	r5, [r3, #64]	; 0x40
 8004aaa:	621a      	str	r2, [r3, #32]
 8004aac:	69dc      	ldr	r4, [r3, #28]
 8004aae:	690d      	ldr	r5, [r1, #16]
 8004ab0:	f444 6400 	orr.w	r4, r4, #2048	; 0x800
 8004ab4:	61dc      	str	r4, [r3, #28]
 8004ab6:	69d9      	ldr	r1, [r3, #28]
 8004ab8:	f421 6180 	bic.w	r1, r1, #1024	; 0x400
 8004abc:	61d9      	str	r1, [r3, #28]
 8004abe:	69da      	ldr	r2, [r3, #28]
 8004ac0:	ea42 2205 	orr.w	r2, r2, r5, lsl #8
 8004ac4:	61da      	str	r2, [r3, #28]
 8004ac6:	2300      	movs	r3, #0
 8004ac8:	bcf0      	pop	{r4, r5, r6, r7}
 8004aca:	2201      	movs	r2, #1
 8004acc:	f880 303c 	strb.w	r3, [r0, #60]	; 0x3c
 8004ad0:	f880 203d 	strb.w	r2, [r0, #61]	; 0x3d
 8004ad4:	4618      	mov	r0, r3
 8004ad6:	4770      	bx	lr
 8004ad8:	6803      	ldr	r3, [r0, #0]
 8004ada:	688f      	ldr	r7, [r1, #8]
 8004adc:	6a1d      	ldr	r5, [r3, #32]
 8004ade:	680e      	ldr	r6, [r1, #0]
 8004ae0:	f025 0501 	bic.w	r5, r5, #1
 8004ae4:	621d      	str	r5, [r3, #32]
 8004ae6:	6a1a      	ldr	r2, [r3, #32]
 8004ae8:	4d50      	ldr	r5, [pc, #320]	; (8004c2c <HAL_TIM_PWM_ConfigChannel+0x1f0>)
 8004aea:	f8d3 c004 	ldr.w	ip, [r3, #4]
 8004aee:	699c      	ldr	r4, [r3, #24]
 8004af0:	f022 0202 	bic.w	r2, r2, #2
 8004af4:	f024 0473 	bic.w	r4, r4, #115	; 0x73
 8004af8:	42ab      	cmp	r3, r5
 8004afa:	ea42 0207 	orr.w	r2, r2, r7
 8004afe:	ea44 0406 	orr.w	r4, r4, r6
 8004b02:	d076      	beq.n	8004bf2 <HAL_TIM_PWM_ConfigChannel+0x1b6>
 8004b04:	684d      	ldr	r5, [r1, #4]
 8004b06:	f8c3 c004 	str.w	ip, [r3, #4]
 8004b0a:	619c      	str	r4, [r3, #24]
 8004b0c:	635d      	str	r5, [r3, #52]	; 0x34
 8004b0e:	621a      	str	r2, [r3, #32]
 8004b10:	699c      	ldr	r4, [r3, #24]
 8004b12:	690d      	ldr	r5, [r1, #16]
 8004b14:	f044 0408 	orr.w	r4, r4, #8
 8004b18:	619c      	str	r4, [r3, #24]
 8004b1a:	6999      	ldr	r1, [r3, #24]
 8004b1c:	f021 0104 	bic.w	r1, r1, #4
 8004b20:	6199      	str	r1, [r3, #24]
 8004b22:	699a      	ldr	r2, [r3, #24]
 8004b24:	432a      	orrs	r2, r5
 8004b26:	619a      	str	r2, [r3, #24]
 8004b28:	e7cd      	b.n	8004ac6 <HAL_TIM_PWM_ConfigChannel+0x8a>
 8004b2a:	6803      	ldr	r3, [r0, #0]
 8004b2c:	688f      	ldr	r7, [r1, #8]
 8004b2e:	6a1d      	ldr	r5, [r3, #32]
 8004b30:	680e      	ldr	r6, [r1, #0]
 8004b32:	f025 0510 	bic.w	r5, r5, #16
 8004b36:	621d      	str	r5, [r3, #32]
 8004b38:	6a1a      	ldr	r2, [r3, #32]
 8004b3a:	4d3c      	ldr	r5, [pc, #240]	; (8004c2c <HAL_TIM_PWM_ConfigChannel+0x1f0>)
 8004b3c:	f8d3 c004 	ldr.w	ip, [r3, #4]
 8004b40:	699c      	ldr	r4, [r3, #24]
 8004b42:	f022 0220 	bic.w	r2, r2, #32
 8004b46:	f424 44e6 	bic.w	r4, r4, #29440	; 0x7300
 8004b4a:	42ab      	cmp	r3, r5
 8004b4c:	ea42 1207 	orr.w	r2, r2, r7, lsl #4
 8004b50:	ea44 2406 	orr.w	r4, r4, r6, lsl #8
 8004b54:	d05b      	beq.n	8004c0e <HAL_TIM_PWM_ConfigChannel+0x1d2>
 8004b56:	684d      	ldr	r5, [r1, #4]
 8004b58:	f8c3 c004 	str.w	ip, [r3, #4]
 8004b5c:	619c      	str	r4, [r3, #24]
 8004b5e:	639d      	str	r5, [r3, #56]	; 0x38
 8004b60:	621a      	str	r2, [r3, #32]
 8004b62:	699c      	ldr	r4, [r3, #24]
 8004b64:	690d      	ldr	r5, [r1, #16]
 8004b66:	f444 6400 	orr.w	r4, r4, #2048	; 0x800
 8004b6a:	619c      	str	r4, [r3, #24]
 8004b6c:	6999      	ldr	r1, [r3, #24]
 8004b6e:	f421 6180 	bic.w	r1, r1, #1024	; 0x400
 8004b72:	6199      	str	r1, [r3, #24]
 8004b74:	699a      	ldr	r2, [r3, #24]
 8004b76:	ea42 2205 	orr.w	r2, r2, r5, lsl #8
 8004b7a:	619a      	str	r2, [r3, #24]
 8004b7c:	e7a3      	b.n	8004ac6 <HAL_TIM_PWM_ConfigChannel+0x8a>
 8004b7e:	6803      	ldr	r3, [r0, #0]
 8004b80:	688f      	ldr	r7, [r1, #8]
 8004b82:	6a1d      	ldr	r5, [r3, #32]
 8004b84:	680e      	ldr	r6, [r1, #0]
 8004b86:	f425 7580 	bic.w	r5, r5, #256	; 0x100
 8004b8a:	621d      	str	r5, [r3, #32]
 8004b8c:	6a1a      	ldr	r2, [r3, #32]
 8004b8e:	4d27      	ldr	r5, [pc, #156]	; (8004c2c <HAL_TIM_PWM_ConfigChannel+0x1f0>)
 8004b90:	f8d3 c004 	ldr.w	ip, [r3, #4]
 8004b94:	69dc      	ldr	r4, [r3, #28]
 8004b96:	f422 7200 	bic.w	r2, r2, #512	; 0x200
 8004b9a:	f024 0473 	bic.w	r4, r4, #115	; 0x73
 8004b9e:	42ab      	cmp	r3, r5
 8004ba0:	ea42 2207 	orr.w	r2, r2, r7, lsl #8
 8004ba4:	ea44 0406 	orr.w	r4, r4, r6
 8004ba8:	d014      	beq.n	8004bd4 <HAL_TIM_PWM_ConfigChannel+0x198>
 8004baa:	684d      	ldr	r5, [r1, #4]
 8004bac:	f8c3 c004 	str.w	ip, [r3, #4]
 8004bb0:	61dc      	str	r4, [r3, #28]
 8004bb2:	63dd      	str	r5, [r3, #60]	; 0x3c
 8004bb4:	621a      	str	r2, [r3, #32]
 8004bb6:	69dc      	ldr	r4, [r3, #28]
 8004bb8:	690d      	ldr	r5, [r1, #16]
 8004bba:	f044 0408 	orr.w	r4, r4, #8
 8004bbe:	61dc      	str	r4, [r3, #28]
 8004bc0:	69d9      	ldr	r1, [r3, #28]
 8004bc2:	f021 0104 	bic.w	r1, r1, #4
 8004bc6:	61d9      	str	r1, [r3, #28]
 8004bc8:	69da      	ldr	r2, [r3, #28]
 8004bca:	432a      	orrs	r2, r5
 8004bcc:	61da      	str	r2, [r3, #28]
 8004bce:	e77a      	b.n	8004ac6 <HAL_TIM_PWM_ConfigChannel+0x8a>
 8004bd0:	2002      	movs	r0, #2
 8004bd2:	4770      	bx	lr
 8004bd4:	68ce      	ldr	r6, [r1, #12]
 8004bd6:	f422 6200 	bic.w	r2, r2, #2048	; 0x800
 8004bda:	e9d1 7505 	ldrd	r7, r5, [r1, #20]
 8004bde:	f42c 5c40 	bic.w	ip, ip, #12288	; 0x3000
 8004be2:	ea42 2206 	orr.w	r2, r2, r6, lsl #8
 8004be6:	433d      	orrs	r5, r7
 8004be8:	f422 6280 	bic.w	r2, r2, #1024	; 0x400
 8004bec:	ea4c 1c05 	orr.w	ip, ip, r5, lsl #4
 8004bf0:	e7db      	b.n	8004baa <HAL_TIM_PWM_ConfigChannel+0x16e>
 8004bf2:	68cf      	ldr	r7, [r1, #12]
 8004bf4:	f022 0208 	bic.w	r2, r2, #8
 8004bf8:	e9d1 5605 	ldrd	r5, r6, [r1, #20]
 8004bfc:	f42c 7c40 	bic.w	ip, ip, #768	; 0x300
 8004c00:	433a      	orrs	r2, r7
 8004c02:	4335      	orrs	r5, r6
 8004c04:	f022 0204 	bic.w	r2, r2, #4
 8004c08:	ea45 0c0c 	orr.w	ip, r5, ip
 8004c0c:	e77a      	b.n	8004b04 <HAL_TIM_PWM_ConfigChannel+0xc8>
 8004c0e:	68ce      	ldr	r6, [r1, #12]
 8004c10:	f022 0280 	bic.w	r2, r2, #128	; 0x80
 8004c14:	e9d1 7505 	ldrd	r7, r5, [r1, #20]
 8004c18:	f42c 6c40 	bic.w	ip, ip, #3072	; 0xc00
 8004c1c:	ea42 1206 	orr.w	r2, r2, r6, lsl #4
 8004c20:	433d      	orrs	r5, r7
 8004c22:	f022 0240 	bic.w	r2, r2, #64	; 0x40
 8004c26:	ea4c 0c85 	orr.w	ip, ip, r5, lsl #2
 8004c2a:	e794      	b.n	8004b56 <HAL_TIM_PWM_ConfigChannel+0x11a>
 8004c2c:	40012c00 	.word	0x40012c00

08004c30 <HAL_TIM_ConfigClockSource>:
 8004c30:	f890 303c 	ldrb.w	r3, [r0, #60]	; 0x3c
 8004c34:	2b01      	cmp	r3, #1
 8004c36:	d05a      	beq.n	8004cee <HAL_TIM_ConfigClockSource+0xbe>
 8004c38:	2202      	movs	r2, #2
 8004c3a:	b4f0      	push	{r4, r5, r6, r7}
 8004c3c:	2501      	movs	r5, #1
 8004c3e:	6803      	ldr	r3, [r0, #0]
 8004c40:	f880 203d 	strb.w	r2, [r0, #61]	; 0x3d
 8004c44:	689a      	ldr	r2, [r3, #8]
 8004c46:	680c      	ldr	r4, [r1, #0]
 8004c48:	f422 427f 	bic.w	r2, r2, #65280	; 0xff00
 8004c4c:	f022 0277 	bic.w	r2, r2, #119	; 0x77
 8004c50:	2c40      	cmp	r4, #64	; 0x40
 8004c52:	f880 503c 	strb.w	r5, [r0, #60]	; 0x3c
 8004c56:	609a      	str	r2, [r3, #8]
 8004c58:	d074      	beq.n	8004d44 <HAL_TIM_ConfigClockSource+0x114>
 8004c5a:	d94a      	bls.n	8004cf2 <HAL_TIM_ConfigClockSource+0xc2>
 8004c5c:	2c60      	cmp	r4, #96	; 0x60
 8004c5e:	d02d      	beq.n	8004cbc <HAL_TIM_ConfigClockSource+0x8c>
 8004c60:	d956      	bls.n	8004d10 <HAL_TIM_ConfigClockSource+0xe0>
 8004c62:	2c70      	cmp	r4, #112	; 0x70
 8004c64:	d01a      	beq.n	8004c9c <HAL_TIM_ConfigClockSource+0x6c>
 8004c66:	f5b4 5f00 	cmp.w	r4, #8192	; 0x2000
 8004c6a:	d10e      	bne.n	8004c8a <HAL_TIM_ConfigClockSource+0x5a>
 8004c6c:	e9d1 5201 	ldrd	r5, r2, [r1, #4]
 8004c70:	68cc      	ldr	r4, [r1, #12]
 8004c72:	6899      	ldr	r1, [r3, #8]
 8004c74:	432a      	orrs	r2, r5
 8004c76:	ea42 2204 	orr.w	r2, r2, r4, lsl #8
 8004c7a:	f421 417f 	bic.w	r1, r1, #65280	; 0xff00
 8004c7e:	430a      	orrs	r2, r1
 8004c80:	609a      	str	r2, [r3, #8]
 8004c82:	689a      	ldr	r2, [r3, #8]
 8004c84:	f442 4280 	orr.w	r2, r2, #16384	; 0x4000
 8004c88:	609a      	str	r2, [r3, #8]
 8004c8a:	2300      	movs	r3, #0
 8004c8c:	bcf0      	pop	{r4, r5, r6, r7}
 8004c8e:	2201      	movs	r2, #1
 8004c90:	f880 303c 	strb.w	r3, [r0, #60]	; 0x3c
 8004c94:	f880 203d 	strb.w	r2, [r0, #61]	; 0x3d
 8004c98:	4618      	mov	r0, r3
 8004c9a:	4770      	bx	lr
 8004c9c:	e9d1 5201 	ldrd	r5, r2, [r1, #4]
 8004ca0:	68cc      	ldr	r4, [r1, #12]
 8004ca2:	6899      	ldr	r1, [r3, #8]
 8004ca4:	432a      	orrs	r2, r5
 8004ca6:	ea42 2204 	orr.w	r2, r2, r4, lsl #8
 8004caa:	f421 417f 	bic.w	r1, r1, #65280	; 0xff00
 8004cae:	430a      	orrs	r2, r1
 8004cb0:	609a      	str	r2, [r3, #8]
 8004cb2:	689a      	ldr	r2, [r3, #8]
 8004cb4:	f042 0277 	orr.w	r2, r2, #119	; 0x77
 8004cb8:	609a      	str	r2, [r3, #8]
 8004cba:	e7e6      	b.n	8004c8a <HAL_TIM_ConfigClockSource+0x5a>
 8004cbc:	6a1c      	ldr	r4, [r3, #32]
 8004cbe:	684d      	ldr	r5, [r1, #4]
 8004cc0:	f024 0410 	bic.w	r4, r4, #16
 8004cc4:	68ce      	ldr	r6, [r1, #12]
 8004cc6:	621c      	str	r4, [r3, #32]
 8004cc8:	6999      	ldr	r1, [r3, #24]
 8004cca:	6a1a      	ldr	r2, [r3, #32]
 8004ccc:	f421 4170 	bic.w	r1, r1, #61440	; 0xf000
 8004cd0:	f022 02a0 	bic.w	r2, r2, #160	; 0xa0
 8004cd4:	ea42 1205 	orr.w	r2, r2, r5, lsl #4
 8004cd8:	ea41 3106 	orr.w	r1, r1, r6, lsl #12
 8004cdc:	6199      	str	r1, [r3, #24]
 8004cde:	621a      	str	r2, [r3, #32]
 8004ce0:	689a      	ldr	r2, [r3, #8]
 8004ce2:	f022 0270 	bic.w	r2, r2, #112	; 0x70
 8004ce6:	f042 0267 	orr.w	r2, r2, #103	; 0x67
 8004cea:	609a      	str	r2, [r3, #8]
 8004cec:	e7cd      	b.n	8004c8a <HAL_TIM_ConfigClockSource+0x5a>
 8004cee:	2002      	movs	r0, #2
 8004cf0:	4770      	bx	lr
 8004cf2:	2c10      	cmp	r4, #16
 8004cf4:	d004      	beq.n	8004d00 <HAL_TIM_ConfigClockSource+0xd0>
 8004cf6:	d93d      	bls.n	8004d74 <HAL_TIM_ConfigClockSource+0x144>
 8004cf8:	2c20      	cmp	r4, #32
 8004cfa:	d001      	beq.n	8004d00 <HAL_TIM_ConfigClockSource+0xd0>
 8004cfc:	2c30      	cmp	r4, #48	; 0x30
 8004cfe:	d1c4      	bne.n	8004c8a <HAL_TIM_ConfigClockSource+0x5a>
 8004d00:	689a      	ldr	r2, [r3, #8]
 8004d02:	f044 0407 	orr.w	r4, r4, #7
 8004d06:	f022 0270 	bic.w	r2, r2, #112	; 0x70
 8004d0a:	4314      	orrs	r4, r2
 8004d0c:	609c      	str	r4, [r3, #8]
 8004d0e:	e7bc      	b.n	8004c8a <HAL_TIM_ConfigClockSource+0x5a>
 8004d10:	2c50      	cmp	r4, #80	; 0x50
 8004d12:	d1ba      	bne.n	8004c8a <HAL_TIM_ConfigClockSource+0x5a>
 8004d14:	6a1d      	ldr	r5, [r3, #32]
 8004d16:	6a1e      	ldr	r6, [r3, #32]
 8004d18:	684c      	ldr	r4, [r1, #4]
 8004d1a:	f026 0601 	bic.w	r6, r6, #1
 8004d1e:	68cf      	ldr	r7, [r1, #12]
 8004d20:	621e      	str	r6, [r3, #32]
 8004d22:	699a      	ldr	r2, [r3, #24]
 8004d24:	f025 010a 	bic.w	r1, r5, #10
 8004d28:	f022 02f0 	bic.w	r2, r2, #240	; 0xf0
 8004d2c:	ea42 1207 	orr.w	r2, r2, r7, lsl #4
 8004d30:	4321      	orrs	r1, r4
 8004d32:	619a      	str	r2, [r3, #24]
 8004d34:	6219      	str	r1, [r3, #32]
 8004d36:	689a      	ldr	r2, [r3, #8]
 8004d38:	f022 0270 	bic.w	r2, r2, #112	; 0x70
 8004d3c:	f042 0257 	orr.w	r2, r2, #87	; 0x57
 8004d40:	609a      	str	r2, [r3, #8]
 8004d42:	e7a2      	b.n	8004c8a <HAL_TIM_ConfigClockSource+0x5a>
 8004d44:	6a1d      	ldr	r5, [r3, #32]
 8004d46:	6a1e      	ldr	r6, [r3, #32]
 8004d48:	684c      	ldr	r4, [r1, #4]
 8004d4a:	f026 0601 	bic.w	r6, r6, #1
 8004d4e:	68cf      	ldr	r7, [r1, #12]
 8004d50:	621e      	str	r6, [r3, #32]
 8004d52:	699a      	ldr	r2, [r3, #24]
 8004d54:	f025 010a 	bic.w	r1, r5, #10
 8004d58:	f022 02f0 	bic.w	r2, r2, #240	; 0xf0
 8004d5c:	ea42 1207 	orr.w	r2, r2, r7, lsl #4
 8004d60:	4321      	orrs	r1, r4
 8004d62:	619a      	str	r2, [r3, #24]
 8004d64:	6219      	str	r1, [r3, #32]
 8004d66:	689a      	ldr	r2, [r3, #8]
 8004d68:	f022 0270 	bic.w	r2, r2, #112	; 0x70
 8004d6c:	f042 0247 	orr.w	r2, r2, #71	; 0x47
 8004d70:	609a      	str	r2, [r3, #8]
 8004d72:	e78a      	b.n	8004c8a <HAL_TIM_ConfigClockSource+0x5a>
 8004d74:	2c00      	cmp	r4, #0
 8004d76:	d0c3      	beq.n	8004d00 <HAL_TIM_ConfigClockSource+0xd0>
 8004d78:	e787      	b.n	8004c8a <HAL_TIM_ConfigClockSource+0x5a>
 8004d7a:	bf00      	nop

08004d7c <HAL_TIM_OC_DelayElapsedCallback>:
 8004d7c:	4770      	bx	lr
 8004d7e:	bf00      	nop

08004d80 <HAL_TIM_IC_CaptureCallback>:
 8004d80:	4770      	bx	lr
 8004d82:	bf00      	nop

08004d84 <HAL_TIM_PWM_PulseFinishedCallback>:
 8004d84:	4770      	bx	lr
 8004d86:	bf00      	nop

08004d88 <HAL_TIM_TriggerCallback>:
 8004d88:	4770      	bx	lr
 8004d8a:	bf00      	nop

08004d8c <HAL_TIM_IRQHandler>:
 8004d8c:	6803      	ldr	r3, [r0, #0]
 8004d8e:	b510      	push	{r4, lr}
 8004d90:	691a      	ldr	r2, [r3, #16]
 8004d92:	4604      	mov	r4, r0
 8004d94:	0791      	lsls	r1, r2, #30
 8004d96:	d502      	bpl.n	8004d9e <HAL_TIM_IRQHandler+0x12>
 8004d98:	68da      	ldr	r2, [r3, #12]
 8004d9a:	0792      	lsls	r2, r2, #30
 8004d9c:	d45f      	bmi.n	8004e5e <HAL_TIM_IRQHandler+0xd2>
 8004d9e:	691a      	ldr	r2, [r3, #16]
 8004da0:	0750      	lsls	r0, r2, #29
 8004da2:	d502      	bpl.n	8004daa <HAL_TIM_IRQHandler+0x1e>
 8004da4:	68da      	ldr	r2, [r3, #12]
 8004da6:	0751      	lsls	r1, r2, #29
 8004da8:	d446      	bmi.n	8004e38 <HAL_TIM_IRQHandler+0xac>
 8004daa:	691a      	ldr	r2, [r3, #16]
 8004dac:	0712      	lsls	r2, r2, #28
 8004dae:	d502      	bpl.n	8004db6 <HAL_TIM_IRQHandler+0x2a>
 8004db0:	68da      	ldr	r2, [r3, #12]
 8004db2:	0710      	lsls	r0, r2, #28
 8004db4:	d42e      	bmi.n	8004e14 <HAL_TIM_IRQHandler+0x88>
 8004db6:	691a      	ldr	r2, [r3, #16]
 8004db8:	06d2      	lsls	r2, r2, #27
 8004dba:	d502      	bpl.n	8004dc2 <HAL_TIM_IRQHandler+0x36>
 8004dbc:	68da      	ldr	r2, [r3, #12]
 8004dbe:	06d0      	lsls	r0, r2, #27
 8004dc0:	d418      	bmi.n	8004df4 <HAL_TIM_IRQHandler+0x68>
 8004dc2:	691a      	ldr	r2, [r3, #16]
 8004dc4:	07d1      	lsls	r1, r2, #31
 8004dc6:	d502      	bpl.n	8004dce <HAL_TIM_IRQHandler+0x42>
 8004dc8:	68da      	ldr	r2, [r3, #12]
 8004dca:	07d2      	lsls	r2, r2, #31
 8004dcc:	d45d      	bmi.n	8004e8a <HAL_TIM_IRQHandler+0xfe>
 8004dce:	691a      	ldr	r2, [r3, #16]
 8004dd0:	0610      	lsls	r0, r2, #24
 8004dd2:	d502      	bpl.n	8004dda <HAL_TIM_IRQHandler+0x4e>
 8004dd4:	68da      	ldr	r2, [r3, #12]
 8004dd6:	0611      	lsls	r1, r2, #24
 8004dd8:	d45f      	bmi.n	8004e9a <HAL_TIM_IRQHandler+0x10e>
 8004dda:	691a      	ldr	r2, [r3, #16]
 8004ddc:	0652      	lsls	r2, r2, #25
 8004dde:	d502      	bpl.n	8004de6 <HAL_TIM_IRQHandler+0x5a>
 8004de0:	68da      	ldr	r2, [r3, #12]
 8004de2:	0650      	lsls	r0, r2, #25
 8004de4:	d461      	bmi.n	8004eaa <HAL_TIM_IRQHandler+0x11e>
 8004de6:	691a      	ldr	r2, [r3, #16]
 8004de8:	0691      	lsls	r1, r2, #26
 8004dea:	d502      	bpl.n	8004df2 <HAL_TIM_IRQHandler+0x66>
 8004dec:	68da      	ldr	r2, [r3, #12]
 8004dee:	0692      	lsls	r2, r2, #26
 8004df0:	d443      	bmi.n	8004e7a <HAL_TIM_IRQHandler+0xee>
 8004df2:	bd10      	pop	{r4, pc}
 8004df4:	f06f 0110 	mvn.w	r1, #16
 8004df8:	2208      	movs	r2, #8
 8004dfa:	6119      	str	r1, [r3, #16]
 8004dfc:	69db      	ldr	r3, [r3, #28]
 8004dfe:	4620      	mov	r0, r4
 8004e00:	f413 7f40 	tst.w	r3, #768	; 0x300
 8004e04:	7722      	strb	r2, [r4, #28]
 8004e06:	d064      	beq.n	8004ed2 <HAL_TIM_IRQHandler+0x146>
 8004e08:	f7ff ffba 	bl	8004d80 <HAL_TIM_IC_CaptureCallback>
 8004e0c:	2200      	movs	r2, #0
 8004e0e:	6823      	ldr	r3, [r4, #0]
 8004e10:	7722      	strb	r2, [r4, #28]
 8004e12:	e7d6      	b.n	8004dc2 <HAL_TIM_IRQHandler+0x36>
 8004e14:	f06f 0108 	mvn.w	r1, #8
 8004e18:	2204      	movs	r2, #4
 8004e1a:	6119      	str	r1, [r3, #16]
 8004e1c:	69db      	ldr	r3, [r3, #28]
 8004e1e:	4620      	mov	r0, r4
 8004e20:	0799      	lsls	r1, r3, #30
 8004e22:	7722      	strb	r2, [r4, #28]
 8004e24:	d152      	bne.n	8004ecc <HAL_TIM_IRQHandler+0x140>
 8004e26:	f7ff ffa9 	bl	8004d7c <HAL_TIM_OC_DelayElapsedCallback>
 8004e2a:	4620      	mov	r0, r4
 8004e2c:	f7ff ffaa 	bl	8004d84 <HAL_TIM_PWM_PulseFinishedCallback>
 8004e30:	2200      	movs	r2, #0
 8004e32:	6823      	ldr	r3, [r4, #0]
 8004e34:	7722      	strb	r2, [r4, #28]
 8004e36:	e7be      	b.n	8004db6 <HAL_TIM_IRQHandler+0x2a>
 8004e38:	f06f 0104 	mvn.w	r1, #4
 8004e3c:	2202      	movs	r2, #2
 8004e3e:	6119      	str	r1, [r3, #16]
 8004e40:	699b      	ldr	r3, [r3, #24]
 8004e42:	4620      	mov	r0, r4
 8004e44:	f413 7f40 	tst.w	r3, #768	; 0x300
 8004e48:	7722      	strb	r2, [r4, #28]
 8004e4a:	d13c      	bne.n	8004ec6 <HAL_TIM_IRQHandler+0x13a>
 8004e4c:	f7ff ff96 	bl	8004d7c <HAL_TIM_OC_DelayElapsedCallback>
 8004e50:	4620      	mov	r0, r4
 8004e52:	f7ff ff97 	bl	8004d84 <HAL_TIM_PWM_PulseFinishedCallback>
 8004e56:	2200      	movs	r2, #0
 8004e58:	6823      	ldr	r3, [r4, #0]
 8004e5a:	7722      	strb	r2, [r4, #28]
 8004e5c:	e7a5      	b.n	8004daa <HAL_TIM_IRQHandler+0x1e>
 8004e5e:	f06f 0102 	mvn.w	r1, #2
 8004e62:	2201      	movs	r2, #1
 8004e64:	6119      	str	r1, [r3, #16]
 8004e66:	699b      	ldr	r3, [r3, #24]
 8004e68:	7702      	strb	r2, [r0, #28]
 8004e6a:	079b      	lsls	r3, r3, #30
 8004e6c:	d025      	beq.n	8004eba <HAL_TIM_IRQHandler+0x12e>
 8004e6e:	f7ff ff87 	bl	8004d80 <HAL_TIM_IC_CaptureCallback>
 8004e72:	2200      	movs	r2, #0
 8004e74:	6823      	ldr	r3, [r4, #0]
 8004e76:	7722      	strb	r2, [r4, #28]
 8004e78:	e791      	b.n	8004d9e <HAL_TIM_IRQHandler+0x12>
 8004e7a:	f06f 0220 	mvn.w	r2, #32
 8004e7e:	4620      	mov	r0, r4
 8004e80:	e8bd 4010 	ldmia.w	sp!, {r4, lr}
 8004e84:	611a      	str	r2, [r3, #16]
 8004e86:	f000 b877 	b.w	8004f78 <HAL_TIMEx_CommutCallback>
 8004e8a:	f06f 0201 	mvn.w	r2, #1
 8004e8e:	4620      	mov	r0, r4
 8004e90:	611a      	str	r2, [r3, #16]
 8004e92:	f7fb fb37 	bl	8000504 <HAL_TIM_PeriodElapsedCallback>
 8004e96:	6823      	ldr	r3, [r4, #0]
 8004e98:	e799      	b.n	8004dce <HAL_TIM_IRQHandler+0x42>
 8004e9a:	f06f 0280 	mvn.w	r2, #128	; 0x80
 8004e9e:	4620      	mov	r0, r4
 8004ea0:	611a      	str	r2, [r3, #16]
 8004ea2:	f000 f86b 	bl	8004f7c <HAL_TIMEx_BreakCallback>
 8004ea6:	6823      	ldr	r3, [r4, #0]
 8004ea8:	e797      	b.n	8004dda <HAL_TIM_IRQHandler+0x4e>
 8004eaa:	f06f 0240 	mvn.w	r2, #64	; 0x40
 8004eae:	4620      	mov	r0, r4
 8004eb0:	611a      	str	r2, [r3, #16]
 8004eb2:	f7ff ff69 	bl	8004d88 <HAL_TIM_TriggerCallback>
 8004eb6:	6823      	ldr	r3, [r4, #0]
 8004eb8:	e795      	b.n	8004de6 <HAL_TIM_IRQHandler+0x5a>
 8004eba:	f7ff ff5f 	bl	8004d7c <HAL_TIM_OC_DelayElapsedCallback>
 8004ebe:	4620      	mov	r0, r4
 8004ec0:	f7ff ff60 	bl	8004d84 <HAL_TIM_PWM_PulseFinishedCallback>
 8004ec4:	e7d5      	b.n	8004e72 <HAL_TIM_IRQHandler+0xe6>
 8004ec6:	f7ff ff5b 	bl	8004d80 <HAL_TIM_IC_CaptureCallback>
 8004eca:	e7c4      	b.n	8004e56 <HAL_TIM_IRQHandler+0xca>
 8004ecc:	f7ff ff58 	bl	8004d80 <HAL_TIM_IC_CaptureCallback>
 8004ed0:	e7ae      	b.n	8004e30 <HAL_TIM_IRQHandler+0xa4>
 8004ed2:	f7ff ff53 	bl	8004d7c <HAL_TIM_OC_DelayElapsedCallback>
 8004ed6:	4620      	mov	r0, r4
 8004ed8:	f7ff ff54 	bl	8004d84 <HAL_TIM_PWM_PulseFinishedCallback>
 8004edc:	e796      	b.n	8004e0c <HAL_TIM_IRQHandler+0x80>
 8004ede:	bf00      	nop

08004ee0 <HAL_TIMEx_MasterConfigSynchronization>:
 8004ee0:	f890 203c 	ldrb.w	r2, [r0, #60]	; 0x3c
 8004ee4:	2a01      	cmp	r2, #1
 8004ee6:	d01a      	beq.n	8004f1e <HAL_TIMEx_MasterConfigSynchronization+0x3e>
 8004ee8:	2202      	movs	r2, #2
 8004eea:	b4f0      	push	{r4, r5, r6, r7}
 8004eec:	4603      	mov	r3, r0
 8004eee:	2500      	movs	r5, #0
 8004ef0:	2601      	movs	r6, #1
 8004ef2:	6804      	ldr	r4, [r0, #0]
 8004ef4:	f880 203d 	strb.w	r2, [r0, #61]	; 0x3d
 8004ef8:	6860      	ldr	r0, [r4, #4]
 8004efa:	e9d1 2700 	ldrd	r2, r7, [r1]
 8004efe:	f020 0170 	bic.w	r1, r0, #112	; 0x70
 8004f02:	4311      	orrs	r1, r2
 8004f04:	68a2      	ldr	r2, [r4, #8]
 8004f06:	4628      	mov	r0, r5
 8004f08:	f022 0280 	bic.w	r2, r2, #128	; 0x80
 8004f0c:	433a      	orrs	r2, r7
 8004f0e:	6061      	str	r1, [r4, #4]
 8004f10:	60a2      	str	r2, [r4, #8]
 8004f12:	f883 603d 	strb.w	r6, [r3, #61]	; 0x3d
 8004f16:	f883 503c 	strb.w	r5, [r3, #60]	; 0x3c
 8004f1a:	bcf0      	pop	{r4, r5, r6, r7}
 8004f1c:	4770      	bx	lr
 8004f1e:	2002      	movs	r0, #2
 8004f20:	4770      	bx	lr
 8004f22:	bf00      	nop

08004f24 <HAL_TIMEx_ConfigBreakDeadTime>:
 8004f24:	f890 303c 	ldrb.w	r3, [r0, #60]	; 0x3c
 8004f28:	2b01      	cmp	r3, #1
 8004f2a:	d022      	beq.n	8004f72 <HAL_TIMEx_ConfigBreakDeadTime+0x4e>
 8004f2c:	4602      	mov	r2, r0
 8004f2e:	e9d1 0302 	ldrd	r0, r3, [r1, #8]
 8004f32:	b410      	push	{r4}
 8004f34:	2400      	movs	r4, #0
 8004f36:	f423 7340 	bic.w	r3, r3, #768	; 0x300
 8004f3a:	4303      	orrs	r3, r0
 8004f3c:	6848      	ldr	r0, [r1, #4]
 8004f3e:	f423 6380 	bic.w	r3, r3, #1024	; 0x400
 8004f42:	4303      	orrs	r3, r0
 8004f44:	6808      	ldr	r0, [r1, #0]
 8004f46:	f423 6300 	bic.w	r3, r3, #2048	; 0x800
 8004f4a:	4303      	orrs	r3, r0
 8004f4c:	6908      	ldr	r0, [r1, #16]
 8004f4e:	f423 5380 	bic.w	r3, r3, #4096	; 0x1000
 8004f52:	4303      	orrs	r3, r0
 8004f54:	6948      	ldr	r0, [r1, #20]
 8004f56:	f423 5300 	bic.w	r3, r3, #8192	; 0x2000
 8004f5a:	4303      	orrs	r3, r0
 8004f5c:	69c8      	ldr	r0, [r1, #28]
 8004f5e:	f423 4380 	bic.w	r3, r3, #16384	; 0x4000
 8004f62:	6811      	ldr	r1, [r2, #0]
 8004f64:	4303      	orrs	r3, r0
 8004f66:	644b      	str	r3, [r1, #68]	; 0x44
 8004f68:	4620      	mov	r0, r4
 8004f6a:	f882 403c 	strb.w	r4, [r2, #60]	; 0x3c
 8004f6e:	bc10      	pop	{r4}
 8004f70:	4770      	bx	lr
 8004f72:	2002      	movs	r0, #2
 8004f74:	4770      	bx	lr
 8004f76:	bf00      	nop

08004f78 <HAL_TIMEx_CommutCallback>:
 8004f78:	4770      	bx	lr
 8004f7a:	bf00      	nop

08004f7c <HAL_TIMEx_BreakCallback>:
 8004f7c:	4770      	bx	lr
 8004f7e:	bf00      	nop

08004f80 <__libc_init_array>:
 8004f80:	b570      	push	{r4, r5, r6, lr}
 8004f82:	2500      	movs	r5, #0
 8004f84:	4e0c      	ldr	r6, [pc, #48]	; (8004fb8 <__libc_init_array+0x38>)
 8004f86:	4c0d      	ldr	r4, [pc, #52]	; (8004fbc <__libc_init_array+0x3c>)
 8004f88:	1ba4      	subs	r4, r4, r6
 8004f8a:	10a4      	asrs	r4, r4, #2
 8004f8c:	42a5      	cmp	r5, r4
 8004f8e:	d109      	bne.n	8004fa4 <__libc_init_array+0x24>
 8004f90:	f000 f82e 	bl	8004ff0 <_init>
 8004f94:	2500      	movs	r5, #0
 8004f96:	4e0a      	ldr	r6, [pc, #40]	; (8004fc0 <__libc_init_array+0x40>)
 8004f98:	4c0a      	ldr	r4, [pc, #40]	; (8004fc4 <__libc_init_array+0x44>)
 8004f9a:	1ba4      	subs	r4, r4, r6
 8004f9c:	10a4      	asrs	r4, r4, #2
 8004f9e:	42a5      	cmp	r5, r4
 8004fa0:	d105      	bne.n	8004fae <__libc_init_array+0x2e>
 8004fa2:	bd70      	pop	{r4, r5, r6, pc}
 8004fa4:	f856 3025 	ldr.w	r3, [r6, r5, lsl #2]
 8004fa8:	4798      	blx	r3
 8004faa:	3501      	adds	r5, #1
 8004fac:	e7ee      	b.n	8004f8c <__libc_init_array+0xc>
 8004fae:	f856 3025 	ldr.w	r3, [r6, r5, lsl #2]
 8004fb2:	4798      	blx	r3
 8004fb4:	3501      	adds	r5, #1
 8004fb6:	e7f2      	b.n	8004f9e <__libc_init_array+0x1e>
 8004fb8:	08005308 	.word	0x08005308
 8004fbc:	08005308 	.word	0x08005308
 8004fc0:	08005308 	.word	0x08005308
 8004fc4:	0800530c 	.word	0x0800530c

08004fc8 <memcpy>:
 8004fc8:	b510      	push	{r4, lr}
 8004fca:	1e43      	subs	r3, r0, #1
 8004fcc:	440a      	add	r2, r1
 8004fce:	4291      	cmp	r1, r2
 8004fd0:	d100      	bne.n	8004fd4 <memcpy+0xc>
 8004fd2:	bd10      	pop	{r4, pc}
 8004fd4:	f811 4b01 	ldrb.w	r4, [r1], #1
 8004fd8:	f803 4f01 	strb.w	r4, [r3, #1]!
 8004fdc:	e7f7      	b.n	8004fce <memcpy+0x6>

08004fde <memset>:
 8004fde:	4603      	mov	r3, r0
 8004fe0:	4402      	add	r2, r0
 8004fe2:	4293      	cmp	r3, r2
 8004fe4:	d100      	bne.n	8004fe8 <memset+0xa>
 8004fe6:	4770      	bx	lr
 8004fe8:	f803 1b01 	strb.w	r1, [r3], #1
 8004fec:	e7f9      	b.n	8004fe2 <memset+0x4>
	...

08004ff0 <_init>:
 8004ff0:	b5f8      	push	{r3, r4, r5, r6, r7, lr}
 8004ff2:	bf00      	nop
 8004ff4:	bcf8      	pop	{r3, r4, r5, r6, r7}
 8004ff6:	bc08      	pop	{r3}
 8004ff8:	469e      	mov	lr, r3
 8004ffa:	4770      	bx	lr

08004ffc <_fini>:
 8004ffc:	b5f8      	push	{r3, r4, r5, r6, r7, lr}
 8004ffe:	bf00      	nop
 8005000:	bcf8      	pop	{r3, r4, r5, r6, r7}
 8005002:	bc08      	pop	{r3}
 8005004:	469e      	mov	lr, r3
 8005006:	4770      	bx	lr
